
Discarded input sections

 .text          0x0000000000000000        0x0 build/applications/can_util.o
 .data          0x0000000000000000        0x0 build/applications/can_util.o
 .bss           0x0000000000000000        0x0 build/applications/can_util.o
 .text.CAN_ErrorHandler
                0x0000000000000000        0x4 build/applications/can_util.o
 .text          0x0000000000000000        0x0 build/applications/uart_util.o
 .data          0x0000000000000000        0x0 build/applications/uart_util.o
 .bss           0x0000000000000000        0x0 build/applications/uart_util.o
 .text.uart_putc
                0x0000000000000000       0x30 build/applications/uart_util.o
 .text.uart_getc
                0x0000000000000000       0x34 build/applications/uart_util.o
 .rodata.uart_configure.str1.8
                0x0000000000000000       0x12 build/applications/uart_util.o
 .text.uart_configure
                0x0000000000000000       0x60 build/applications/uart_util.o
 .text.rt_hw_uart_isr
                0x0000000000000000       0x10 build/applications/uart_util.o
 .rodata.uart_control.str1.8
                0x0000000000000000       0x10 build/applications/uart_util.o
 .text.uart_control
                0x0000000000000000       0x44 build/applications/uart_util.o
 .text.uart_init
                0x0000000000000000       0x84 build/applications/uart_util.o
 .rodata.hw_uart_init.str1.8
                0x0000000000000000        0x5 build/applications/uart_util.o
 .text.hw_uart_init
                0x0000000000000000       0xb0 build/applications/uart_util.o
 .srodata.cst8  0x0000000000000000        0x8 build/applications/uart_util.o
 .bss.serial2   0x0000000000000000       0xa0 build/applications/uart_util.o
 .bss.uart2     0x0000000000000000       0x10 build/applications/uart_util.o
 .rodata.__FUNCTION__.0
                0x0000000000000000        0xf build/applications/uart_util.o
 .rodata.__FUNCTION__.1
                0x0000000000000000        0xd build/applications/uart_util.o
 .rodata.uart_ops
                0x0000000000000000       0x28 build/applications/uart_util.o
 .comment       0x0000000000000000       0x2c build/applications/uart_util.o
 .note.GNU-stack
                0x0000000000000000        0x0 build/applications/uart_util.o
 .riscv.attributes
                0x0000000000000000       0x24 build/applications/uart_util.o
 .text          0x0000000000000000        0x0 build/applications/main.o
 .data          0x0000000000000000        0x0 build/applications/main.o
 .bss           0x0000000000000000        0x0 build/applications/main.o
 .text          0x0000000000000000        0x0 build/applications/pid_alg.o
 .data          0x0000000000000000        0x0 build/applications/pid_alg.o
 .bss           0x0000000000000000        0x0 build/applications/pid_alg.o
 .text.PID_InitPIDParam
                0x0000000000000000       0x18 build/applications/pid_alg.o
 .text.PID_GetPIDOutput
                0x0000000000000000        0x8 build/applications/pid_alg.o
 .text.PID_GetPIDRef
                0x0000000000000000        0x8 build/applications/pid_alg.o
 .text.PID_SetPIDRef
                0x0000000000000000        0x8 build/applications/pid_alg.o
 .text.PID_SetPIDFdb
                0x0000000000000000        0x8 build/applications/pid_alg.o
 .text.PID_ClearPID
                0x0000000000000000       0x20 build/applications/pid_alg.o
 .text.PID_SetPIDMax
                0x0000000000000000        0x8 build/applications/pid_alg.o
 .data.PID_ChassisMotorpidparam
                0x0000000000000000       0x14 build/applications/pid_alg.o
 .text          0x0000000000000000        0x0 build/applications/motor_periph.o
 .data          0x0000000000000000        0x0 build/applications/motor_periph.o
 .bss           0x0000000000000000        0x0 build/applications/motor_periph.o
 .text          0x0000000000000000        0x0 build/driver/plic.o
 .data          0x0000000000000000        0x0 build/driver/plic.o
 .bss           0x0000000000000000        0x0 build/driver/plic.o
 .text.plic_irq_disable
                0x0000000000000000       0x2c build/driver/plic.o
 .text          0x0000000000000000        0x0 build/driver/drv_uart.o
 .data          0x0000000000000000        0x0 build/driver/drv_uart.o
 .bss           0x0000000000000000        0x0 build/driver/drv_uart.o
 .text          0x0000000000000000        0x0 build/driver/board.o
 .data          0x0000000000000000        0x0 build/driver/board.o
 .bss           0x0000000000000000        0x0 build/driver/board.o
 .text          0x0000000000000000        0x0 build/driver/sbi.o
 .data          0x0000000000000000        0x0 build/driver/sbi.o
 .bss           0x0000000000000000        0x0 build/driver/sbi.o
 .text.sbi_call
                0x0000000000000000       0x30 build/driver/sbi.o
 .text.sbi_probe_extension
                0x0000000000000000       0x3c build/driver/sbi.o
 .rodata.sbi_print_version.str1.8
                0x0000000000000000      0x152 build/driver/sbi.o
 .text.sbi_print_version
                0x0000000000000000      0x134 build/driver/sbi.o
 .rodata.sbi_print_version
                0x0000000000000000       0x18 build/driver/sbi.o
 .rodata.sbi_set_timer.str1.8
                0x0000000000000000       0x19 build/driver/sbi.o
 .text.sbi_set_timer
                0x0000000000000000       0x90 build/driver/sbi.o
 .text.sbi_send_ipi
                0x0000000000000000       0x94 build/driver/sbi.o
 .text.sbi_remote_fence_i
                0x0000000000000000       0x94 build/driver/sbi.o
 .text.sbi_remote_sfence_vma
                0x0000000000000000       0x94 build/driver/sbi.o
 .text.sbi_remote_sfence_vma_asid
                0x0000000000000000       0x94 build/driver/sbi.o
 .text.sbi_hsm_hart_start
                0x0000000000000000       0x40 build/driver/sbi.o
 .text.sbi_hsm_hart_stop
                0x0000000000000000       0x28 build/driver/sbi.o
 .text.sbi_hsm_hart_status
                0x0000000000000000       0x4c build/driver/sbi.o
 .text.sbi_init
                0x0000000000000000      0x108 build/driver/sbi.o
 .rodata.__FUNCTION__.0
                0x0000000000000000       0x1b build/driver/sbi.o
 .rodata.__FUNCTION__.1
                0x0000000000000000       0x16 build/driver/sbi.o
 .rodata.__FUNCTION__.2
                0x0000000000000000       0x13 build/driver/sbi.o
 .rodata.__FUNCTION__.3
                0x0000000000000000        0xd build/driver/sbi.o
 .rodata.__FUNCTION__.4
                0x0000000000000000        0xe build/driver/sbi.o
 .sbss.has_ipi_extension
                0x0000000000000000        0x1 build/driver/sbi.o
 .sbss.has_rfnc_extension
                0x0000000000000000        0x1 build/driver/sbi.o
 .sbss.has_time_extension
                0x0000000000000000        0x1 build/driver/sbi.o
 .sbss.sbi_impl_id
                0x0000000000000000        0x8 build/driver/sbi.o
 .sbss.sbi_impl_version
                0x0000000000000000        0x8 build/driver/sbi.o
 .sbss.sbi_spec_version
                0x0000000000000000        0x8 build/driver/sbi.o
 .comment       0x0000000000000000       0x2c build/driver/sbi.o
 .note.GNU-stack
                0x0000000000000000        0x0 build/driver/sbi.o
 .riscv.attributes
                0x0000000000000000       0x24 build/driver/sbi.o
 .text          0x0000000000000000        0x0 build/driver/lib/stdlib.o
 .data          0x0000000000000000        0x0 build/driver/lib/stdlib.o
 .bss           0x0000000000000000        0x0 build/driver/lib/stdlib.o
 .text          0x0000000000000000        0x0 build/driver/lib/stdio.o
 .data          0x0000000000000000        0x0 build/driver/lib/stdio.o
 .bss           0x0000000000000000        0x0 build/driver/lib/stdio.o
 .text.vsprintf
                0x0000000000000000        0x8 build/driver/lib/stdio.o
 .text.sprintf  0x0000000000000000       0x40 build/driver/lib/stdio.o
 .comment       0x0000000000000000       0x2c build/driver/lib/stdio.o
 .note.GNU-stack
                0x0000000000000000        0x0 build/driver/lib/stdio.o
 .riscv.attributes
                0x0000000000000000       0x24 build/driver/lib/stdio.o
 .text          0x0000000000000000        0x0 build/driver/lib/string.o
 .data          0x0000000000000000        0x0 build/driver/lib/string.o
 .bss           0x0000000000000000        0x0 build/driver/lib/string.o
 .text.memmove  0x0000000000000000        0x8 build/driver/lib/string.o
 .text          0x0000000000000000        0x0 build/kernel/src/device.o
 .data          0x0000000000000000        0x0 build/kernel/src/device.o
 .bss           0x0000000000000000        0x0 build/kernel/src/device.o
 .text.rt_device_unregister
                0x0000000000000000       0xac build/kernel/src/device.o
 .text.rt_device_create
                0x0000000000000000       0x5c build/kernel/src/device.o
 .rodata.rt_device_destroy.str1.8
                0x0000000000000000       0x34 build/kernel/src/device.o
 .text.rt_device_destroy
                0x0000000000000000       0xb0 build/kernel/src/device.o
 .text.rt_device_init
                0x0000000000000000       0x9c build/kernel/src/device.o
 .text.rt_device_set_tx_complete
                0x0000000000000000       0x84 build/kernel/src/device.o
 .rodata.__FUNCTION__.0
                0x0000000000000000       0x1a build/kernel/src/device.o
 .rodata.__FUNCTION__.7
                0x0000000000000000        0xf build/kernel/src/device.o
 .rodata.__FUNCTION__.8
                0x0000000000000000       0x12 build/kernel/src/device.o
 .rodata.__FUNCTION__.9
                0x0000000000000000       0x15 build/kernel/src/device.o
 .text          0x0000000000000000        0x0 build/kernel/src/mem.o
 .data          0x0000000000000000        0x0 build/kernel/src/mem.o
 .bss           0x0000000000000000        0x0 build/kernel/src/mem.o
 .text.rt_malloc_sethook
                0x0000000000000000        0xc build/kernel/src/mem.o
 .text.rt_free_sethook
                0x0000000000000000        0xc build/kernel/src/mem.o
 .text.rt_memory_info
                0x0000000000000000       0x34 build/kernel/src/mem.o
 .text          0x0000000000000000        0x0 build/kernel/src/thread.o
 .data          0x0000000000000000        0x0 build/kernel/src/thread.o
 .bss           0x0000000000000000        0x0 build/kernel/src/thread.o
 .text.rt_thread_suspend_sethook
                0x0000000000000000        0xc build/kernel/src/thread.o
 .text.rt_thread_resume_sethook
                0x0000000000000000        0xc build/kernel/src/thread.o
 .text.rt_thread_inited_sethook
                0x0000000000000000        0xc build/kernel/src/thread.o
 .text.rt_thread_yield
                0x0000000000000000       0x5c build/kernel/src/thread.o
 .rodata.rt_thread_delay_until.str1.8
                0x0000000000000000       0x10 build/kernel/src/thread.o
 .text.rt_thread_delay_until
                0x0000000000000000      0x154 build/kernel/src/thread.o
 .text.rt_thread_find
                0x0000000000000000        0xc build/kernel/src/thread.o
 .rodata.__FUNCTION__.4
                0x0000000000000000       0x16 build/kernel/src/thread.o
 .text          0x0000000000000000        0x0 build/kernel/src/kservice.o
 .data          0x0000000000000000        0x0 build/kernel/src/kservice.o
 .bss           0x0000000000000000        0x0 build/kernel/src/kservice.o
 .text.rt_get_errno
                0x0000000000000000       0x3c build/kernel/src/kservice.o
 .text._rt_errno
                0x0000000000000000       0x3c build/kernel/src/kservice.o
 .text.rt_strcasecmp
                0x0000000000000000       0x44 build/kernel/src/kservice.o
 .text.rt_strnlen
                0x0000000000000000       0x24 build/kernel/src/kservice.o
 .text.rt_kputs
                0x0000000000000000       0x98 build/kernel/src/kservice.o
 .text.rt_malloc_align
                0x0000000000000000       0x64 build/kernel/src/kservice.o
 .text.rt_free_align
                0x0000000000000000        0xc build/kernel/src/kservice.o
 .text.rt_assert_set_hook
                0x0000000000000000        0xc build/kernel/src/kservice.o
 .text          0x0000000000000000        0x0 build/kernel/src/fixpoint.o
 .data          0x0000000000000000        0x0 build/kernel/src/fixpoint.o
 .bss           0x0000000000000000        0x0 build/kernel/src/fixpoint.o
 .text.fixedpt_sqrt
                0x0000000000000000       0xe4 build/kernel/src/fixpoint.o
 .text.fixedpt_sin
                0x0000000000000000       0xd0 build/kernel/src/fixpoint.o
 .text.fixedpt_exp
                0x0000000000000000      0x108 build/kernel/src/fixpoint.o
 .text.fixedpt_ln
                0x0000000000000000      0x184 build/kernel/src/fixpoint.o
 .text          0x0000000000000000        0x0 build/kernel/src/object.o
 .data          0x0000000000000000        0x0 build/kernel/src/object.o
 .bss           0x0000000000000000        0x0 build/kernel/src/object.o
 .text.rt_object_attach_sethook
                0x0000000000000000        0xc build/kernel/src/object.o
 .text.rt_object_detach_sethook
                0x0000000000000000        0xc build/kernel/src/object.o
 .text.rt_object_trytake_sethook
                0x0000000000000000        0xc build/kernel/src/object.o
 .text.rt_object_take_sethook
                0x0000000000000000        0xc build/kernel/src/object.o
 .text.rt_object_put_sethook
                0x0000000000000000        0xc build/kernel/src/object.o
 .text.rt_object_get_length
                0x0000000000000000       0x68 build/kernel/src/object.o
 .text.rt_object_get_pointers
                0x0000000000000000       0x98 build/kernel/src/object.o
 .text          0x0000000000000000        0x0 build/kernel/src/components.o
 .data          0x0000000000000000        0x0 build/kernel/src/components.o
 .bss           0x0000000000000000        0x0 build/kernel/src/components.o
 .text          0x0000000000000000        0x0 build/kernel/src/scheduler.o
 .data          0x0000000000000000        0x0 build/kernel/src/scheduler.o
 .bss           0x0000000000000000        0x0 build/kernel/src/scheduler.o
 .text.rt_scheduler_sethook
                0x0000000000000000        0xc build/kernel/src/scheduler.o
 .text.rt_scheduler_switch_sethook
                0x0000000000000000        0xc build/kernel/src/scheduler.o
 .text.rt_critical_level
                0x0000000000000000        0xc build/kernel/src/scheduler.o
 .text          0x0000000000000000        0x0 build/kernel/src/clock.o
 .data          0x0000000000000000        0x0 build/kernel/src/clock.o
 .bss           0x0000000000000000        0x0 build/kernel/src/clock.o
 .text.rt_tick_set
                0x0000000000000000       0x34 build/kernel/src/clock.o
 .text.rt_tick_get_millisecond
                0x0000000000000000        0x8 build/kernel/src/clock.o
 .text          0x0000000000000000        0x0 build/kernel/src/irq.o
 .data          0x0000000000000000        0x0 build/kernel/src/irq.o
 .bss           0x0000000000000000        0x0 build/kernel/src/irq.o
 .text.rt_interrupt_enter_sethook
                0x0000000000000000        0xc build/kernel/src/irq.o
 .text.rt_interrupt_leave_sethook
                0x0000000000000000        0xc build/kernel/src/irq.o
 .text          0x0000000000000000        0x0 build/kernel/src/timer.o
 .data          0x0000000000000000        0x0 build/kernel/src/timer.o
 .bss           0x0000000000000000        0x0 build/kernel/src/timer.o
 .text.rt_timer_enter_sethook
                0x0000000000000000        0xc build/kernel/src/timer.o
 .text.rt_timer_exit_sethook
                0x0000000000000000        0xc build/kernel/src/timer.o
 .text.rt_timer_create
                0x0000000000000000       0x7c build/kernel/src/timer.o
 .rodata.rt_timer_delete.str1.8
                0x0000000000000000       0x36 build/kernel/src/timer.o
 .text.rt_timer_delete
                0x0000000000000000       0xe4 build/kernel/src/timer.o
 .text.rt_timer_next_timeout_tick
                0x0000000000000000       0x48 build/kernel/src/timer.o
 .rodata.__FUNCTION__.4
                0x0000000000000000       0x10 build/kernel/src/timer.o
 .text          0x0000000000000000        0x0 build/kernel/src/ipc.o
 .data          0x0000000000000000        0x0 build/kernel/src/ipc.o
 .bss           0x0000000000000000        0x0 build/kernel/src/ipc.o
 .text.rt_ipc_list_resume_all.isra.0
                0x0000000000000000       0x6c build/kernel/src/ipc.o
 .text.rt_sem_detach
                0x0000000000000000       0xb8 build/kernel/src/ipc.o
 .text.rt_sem_create
                0x0000000000000000       0xe4 build/kernel/src/ipc.o
 .rodata.rt_sem_delete.str1.8
                0x0000000000000000       0x3b build/kernel/src/ipc.o
 .text.rt_sem_delete
                0x0000000000000000      0x118 build/kernel/src/ipc.o
 .text.rt_sem_trytake
                0x0000000000000000        0xc build/kernel/src/ipc.o
 .text.rt_sem_control
                0x0000000000000000       0xc8 build/kernel/src/ipc.o
 .text.rt_mutex_detach
                0x0000000000000000       0xb8 build/kernel/src/ipc.o
 .text.rt_mutex_create
                0x0000000000000000       0xb8 build/kernel/src/ipc.o
 .rodata.rt_mutex_delete.str1.8
                0x0000000000000000       0x3d build/kernel/src/ipc.o
 .text.rt_mutex_delete
                0x0000000000000000      0x118 build/kernel/src/ipc.o
 .text.rt_mutex_trytake
                0x0000000000000000        0xc build/kernel/src/ipc.o
 .text.rt_mutex_control
                0x0000000000000000       0x74 build/kernel/src/ipc.o
 .rodata.rt_event_init.str1.8
                0x0000000000000000       0x11 build/kernel/src/ipc.o
 .text.rt_event_init
                0x0000000000000000       0x84 build/kernel/src/ipc.o
 .rodata.rt_event_detach.str1.8
                0x0000000000000000       0x79 build/kernel/src/ipc.o
 .text.rt_event_detach
                0x0000000000000000       0xb8 build/kernel/src/ipc.o
 .text.rt_event_create
                0x0000000000000000       0xb4 build/kernel/src/ipc.o
 .rodata.rt_event_delete.str1.8
                0x0000000000000000       0x3d build/kernel/src/ipc.o
 .text.rt_event_delete
                0x0000000000000000      0x118 build/kernel/src/ipc.o
 .text.rt_event_send
                0x0000000000000000      0x18c build/kernel/src/ipc.o
 .text.rt_event_recv
                0x0000000000000000      0x2cc build/kernel/src/ipc.o
 .text.rt_event_control
                0x0000000000000000       0xbc build/kernel/src/ipc.o
 .rodata.rt_mb_init.str1.8
                0x0000000000000000        0xe build/kernel/src/ipc.o
 .text.rt_mb_init
                0x0000000000000000       0xb4 build/kernel/src/ipc.o
 .rodata.rt_mb_detach.str1.8
                0x0000000000000000       0x76 build/kernel/src/ipc.o
 .text.rt_mb_detach
                0x0000000000000000       0xc4 build/kernel/src/ipc.o
 .text.rt_mb_create
                0x0000000000000000      0x108 build/kernel/src/ipc.o
 .rodata.rt_mb_delete.str1.8
                0x0000000000000000       0x3a build/kernel/src/ipc.o
 .text.rt_mb_delete
                0x0000000000000000      0x130 build/kernel/src/ipc.o
 .text.rt_mb_send_wait
                0x0000000000000000      0x328 build/kernel/src/ipc.o
 .text.rt_mb_send
                0x0000000000000000        0xc build/kernel/src/ipc.o
 .text.rt_mb_urgent
                0x0000000000000000      0x138 build/kernel/src/ipc.o
 .text.rt_mb_recv
                0x0000000000000000      0x358 build/kernel/src/ipc.o
 .text.rt_mb_control
                0x0000000000000000       0xcc build/kernel/src/ipc.o
 .rodata.rt_mq_init.str1.8
                0x0000000000000000        0xe build/kernel/src/ipc.o
 .text.rt_mq_init
                0x0000000000000000      0x120 build/kernel/src/ipc.o
 .rodata.rt_mq_detach.str1.8
                0x0000000000000000       0x76 build/kernel/src/ipc.o
 .text.rt_mq_detach
                0x0000000000000000       0xc4 build/kernel/src/ipc.o
 .text.rt_mq_create
                0x0000000000000000      0x178 build/kernel/src/ipc.o
 .rodata.rt_mq_delete.str1.8
                0x0000000000000000       0x3a build/kernel/src/ipc.o
 .text.rt_mq_delete
                0x0000000000000000      0x140 build/kernel/src/ipc.o
 .rodata.rt_mq_send_wait.str1.8
                0x0000000000000000       0x22 build/kernel/src/ipc.o
 .text.rt_mq_send_wait
                0x0000000000000000      0x3ac build/kernel/src/ipc.o
 .text.rt_mq_send
                0x0000000000000000        0xc build/kernel/src/ipc.o
 .text.rt_mq_urgent
                0x0000000000000000      0x1c8 build/kernel/src/ipc.o
 .text.rt_mq_recv
                0x0000000000000000      0x3d0 build/kernel/src/ipc.o
 .text.rt_mq_control
                0x0000000000000000       0xfc build/kernel/src/ipc.o
 .rodata.__FUNCTION__.0
                0x0000000000000000        0xe build/kernel/src/ipc.o
 .rodata.__FUNCTION__.1
                0x0000000000000000        0xb build/kernel/src/ipc.o
 .rodata.__FUNCTION__.10
                0x0000000000000000        0xd build/kernel/src/ipc.o
 .rodata.__FUNCTION__.11
                0x0000000000000000       0x10 build/kernel/src/ipc.o
 .rodata.__FUNCTION__.12
                0x0000000000000000        0xd build/kernel/src/ipc.o
 .rodata.__FUNCTION__.13
                0x0000000000000000        0xd build/kernel/src/ipc.o
 .rodata.__FUNCTION__.14
                0x0000000000000000        0xd build/kernel/src/ipc.o
 .rodata.__FUNCTION__.15
                0x0000000000000000        0xb build/kernel/src/ipc.o
 .rodata.__FUNCTION__.16
                0x0000000000000000       0x11 build/kernel/src/ipc.o
 .rodata.__FUNCTION__.17
                0x0000000000000000        0xe build/kernel/src/ipc.o
 .rodata.__FUNCTION__.18
                0x0000000000000000        0xe build/kernel/src/ipc.o
 .rodata.__FUNCTION__.19
                0x0000000000000000       0x10 build/kernel/src/ipc.o
 .rodata.__FUNCTION__.2
                0x0000000000000000        0xd build/kernel/src/ipc.o
 .rodata.__FUNCTION__.20
                0x0000000000000000       0x10 build/kernel/src/ipc.o
 .rodata.__FUNCTION__.21
                0x0000000000000000       0x10 build/kernel/src/ipc.o
 .rodata.__FUNCTION__.22
                0x0000000000000000        0xe build/kernel/src/ipc.o
 .rodata.__FUNCTION__.23
                0x0000000000000000       0x11 build/kernel/src/ipc.o
 .rodata.__FUNCTION__.26
                0x0000000000000000       0x10 build/kernel/src/ipc.o
 .rodata.__FUNCTION__.27
                0x0000000000000000       0x10 build/kernel/src/ipc.o
 .rodata.__FUNCTION__.28
                0x0000000000000000       0x10 build/kernel/src/ipc.o
 .rodata.__FUNCTION__.3
                0x0000000000000000       0x10 build/kernel/src/ipc.o
 .rodata.__FUNCTION__.30
                0x0000000000000000        0xf build/kernel/src/ipc.o
 .rodata.__FUNCTION__.34
                0x0000000000000000        0xe build/kernel/src/ipc.o
 .rodata.__FUNCTION__.35
                0x0000000000000000        0xe build/kernel/src/ipc.o
 .rodata.__FUNCTION__.36
                0x0000000000000000        0xe build/kernel/src/ipc.o
 .rodata.__FUNCTION__.4
                0x0000000000000000        0xd build/kernel/src/ipc.o
 .rodata.__FUNCTION__.5
                0x0000000000000000        0xd build/kernel/src/ipc.o
 .rodata.__FUNCTION__.6
                0x0000000000000000        0xd build/kernel/src/ipc.o
 .rodata.__FUNCTION__.7
                0x0000000000000000        0xb build/kernel/src/ipc.o
 .rodata.__FUNCTION__.8
                0x0000000000000000        0xe build/kernel/src/ipc.o
 .rodata.__FUNCTION__.9
                0x0000000000000000        0xb build/kernel/src/ipc.o
 .text          0x0000000000000000        0x0 build/kernel/src/mempool.o
 .data          0x0000000000000000        0x0 build/kernel/src/mempool.o
 .bss           0x0000000000000000        0x0 build/kernel/src/mempool.o
 .text.rt_mp_alloc_sethook
                0x0000000000000000        0xc build/kernel/src/mempool.o
 .text.rt_mp_free_sethook
                0x0000000000000000        0xc build/kernel/src/mempool.o
 .rodata.rt_mp_init.str1.8
                0x0000000000000000       0x53 build/kernel/src/mempool.o
 .text.rt_mp_init
                0x0000000000000000      0x164 build/kernel/src/mempool.o
 .rodata.rt_mp_detach.str1.8
                0x0000000000000000       0x67 build/kernel/src/mempool.o
 .text.rt_mp_detach
                0x0000000000000000      0x104 build/kernel/src/mempool.o
 .rodata.rt_mp_create.str1.8
                0x0000000000000000       0x52 build/kernel/src/mempool.o
 .text.rt_mp_create
                0x0000000000000000      0x194 build/kernel/src/mempool.o
 .rodata.rt_mp_delete.str1.8
                0x0000000000000000       0x33 build/kernel/src/mempool.o
 .text.rt_mp_delete
                0x0000000000000000      0x168 build/kernel/src/mempool.o
 .rodata.rt_mp_alloc.str1.8
                0x0000000000000000       0x15 build/kernel/src/mempool.o
 .text.rt_mp_alloc
                0x0000000000000000      0x260 build/kernel/src/mempool.o
 .text.rt_mp_free
                0x0000000000000000       0xd0 build/kernel/src/mempool.o
 .rodata.__FUNCTION__.0
                0x0000000000000000        0xc build/kernel/src/mempool.o
 .rodata.__FUNCTION__.1
                0x0000000000000000        0xd build/kernel/src/mempool.o
 .rodata.__FUNCTION__.2
                0x0000000000000000        0xd build/kernel/src/mempool.o
 .rodata.__FUNCTION__.3
                0x0000000000000000        0xd build/kernel/src/mempool.o
 .rodata.__FUNCTION__.4
                0x0000000000000000        0xb build/kernel/src/mempool.o
 .sbss.rt_mp_alloc_hook
                0x0000000000000000        0x8 build/kernel/src/mempool.o
 .sbss.rt_mp_free_hook
                0x0000000000000000        0x8 build/kernel/src/mempool.o
 .comment       0x0000000000000000       0x2c build/kernel/src/mempool.o
 .note.GNU-stack
                0x0000000000000000        0x0 build/kernel/src/mempool.o
 .riscv.attributes
                0x0000000000000000       0x24 build/kernel/src/mempool.o
 .text          0x0000000000000000        0x0 build/kernel/src/idle.o
 .data          0x0000000000000000        0x0 build/kernel/src/idle.o
 .bss           0x0000000000000000        0x0 build/kernel/src/idle.o
 .text.rt_thread_idle_sethook
                0x0000000000000000       0x74 build/kernel/src/idle.o
 .text.rt_thread_idle_delhook
                0x0000000000000000       0x74 build/kernel/src/idle.o
 .text.rt_thread_idle_gethandler
                0x0000000000000000        0xc build/kernel/src/idle.o
 .text          0x0000000000000000        0x0 /home/ddddddd/my_learn/cpu_relative/prog/src/rtthread/libcpu/risc-v/virt64/interrupt.o
 .data          0x0000000000000000        0x0 /home/ddddddd/my_learn/cpu_relative/prog/src/rtthread/libcpu/risc-v/virt64/interrupt.o
 .bss           0x0000000000000000        0x0 /home/ddddddd/my_learn/cpu_relative/prog/src/rtthread/libcpu/risc-v/virt64/interrupt.o
 .text.rt_hw_clint_ipi_enable
                0x0000000000000000        0xc /home/ddddddd/my_learn/cpu_relative/prog/src/rtthread/libcpu/risc-v/virt64/interrupt.o
 .text.rt_hw_clint_ipi_disable
                0x0000000000000000        0xc /home/ddddddd/my_learn/cpu_relative/prog/src/rtthread/libcpu/risc-v/virt64/interrupt.o
 .text.rt_hw_plic_irq_enable
                0x0000000000000000       0x20 /home/ddddddd/my_learn/cpu_relative/prog/src/rtthread/libcpu/risc-v/virt64/interrupt.o
 .text.rt_hw_plic_irq_disable
                0x0000000000000000       0x20 /home/ddddddd/my_learn/cpu_relative/prog/src/rtthread/libcpu/risc-v/virt64/interrupt.o
 .text.rt_hw_interrupt_mask
                0x0000000000000000        0x8 /home/ddddddd/my_learn/cpu_relative/prog/src/rtthread/libcpu/risc-v/virt64/interrupt.o
 .text.plic_irq_handle
                0x0000000000000000       0x14 /home/ddddddd/my_learn/cpu_relative/prog/src/rtthread/libcpu/risc-v/virt64/interrupt.o
 .text          0x0000000000000000        0x0 /home/ddddddd/my_learn/cpu_relative/prog/src/rtthread/libcpu/risc-v/virt64/cpuport.o
 .data          0x0000000000000000        0x0 /home/ddddddd/my_learn/cpu_relative/prog/src/rtthread/libcpu/risc-v/virt64/cpuport.o
 .bss           0x0000000000000000        0x0 /home/ddddddd/my_learn/cpu_relative/prog/src/rtthread/libcpu/risc-v/virt64/cpuport.o
 .rodata.rt_hw_cpu_shutdown.str1.8
                0x0000000000000000       0x12 /home/ddddddd/my_learn/cpu_relative/prog/src/rtthread/libcpu/risc-v/virt64/cpuport.o
 .text.rt_hw_cpu_shutdown
                0x0000000000000000       0x74 /home/ddddddd/my_learn/cpu_relative/prog/src/rtthread/libcpu/risc-v/virt64/cpuport.o
 .text.rt_thread_sp_to_thread
                0x0000000000000000        0x8 /home/ddddddd/my_learn/cpu_relative/prog/src/rtthread/libcpu/risc-v/virt64/cpuport.o
 .text.get_thread_kernel_stack_top
                0x0000000000000000       0x10 /home/ddddddd/my_learn/cpu_relative/prog/src/rtthread/libcpu/risc-v/virt64/cpuport.o
 .rodata.__FUNCTION__.0
                0x0000000000000000       0x13 /home/ddddddd/my_learn/cpu_relative/prog/src/rtthread/libcpu/risc-v/virt64/cpuport.o
 .data          0x0000000000000000        0x0 /home/ddddddd/my_learn/cpu_relative/prog/src/rtthread/libcpu/risc-v/virt64/muldi3.o
 .bss           0x0000000000000000        0x0 /home/ddddddd/my_learn/cpu_relative/prog/src/rtthread/libcpu/risc-v/virt64/muldi3.o
 .data          0x0000000000000000        0x0 /home/ddddddd/my_learn/cpu_relative/prog/src/rtthread/libcpu/risc-v/virt64/context_gcc.o
 .bss           0x0000000000000000        0x0 /home/ddddddd/my_learn/cpu_relative/prog/src/rtthread/libcpu/risc-v/virt64/context_gcc.o
 .text          0x0000000000000000        0x0 /home/ddddddd/my_learn/cpu_relative/prog/src/rtthread/libcpu/risc-v/virt64/tick.o
 .data          0x0000000000000000        0x0 /home/ddddddd/my_learn/cpu_relative/prog/src/rtthread/libcpu/risc-v/virt64/tick.o
 .bss           0x0000000000000000        0x0 /home/ddddddd/my_learn/cpu_relative/prog/src/rtthread/libcpu/risc-v/virt64/tick.o
 .sbss.tick_cycles
                0x0000000000000000        0x8 /home/ddddddd/my_learn/cpu_relative/prog/src/rtthread/libcpu/risc-v/virt64/tick.o
 .sbss.time_elapsed
                0x0000000000000000        0x8 /home/ddddddd/my_learn/cpu_relative/prog/src/rtthread/libcpu/risc-v/virt64/tick.o
 .text          0x0000000000000000        0x0 /home/ddddddd/my_learn/cpu_relative/prog/src/rtthread/libcpu/risc-v/virt64/startup_gcc.o
 .data          0x0000000000000000        0x0 /home/ddddddd/my_learn/cpu_relative/prog/src/rtthread/libcpu/risc-v/virt64/startup_gcc.o
 .bss           0x0000000000000000        0x0 /home/ddddddd/my_learn/cpu_relative/prog/src/rtthread/libcpu/risc-v/virt64/startup_gcc.o
 .text          0x0000000000000000        0x0 /home/ddddddd/my_learn/cpu_relative/prog/src/rtthread/libcpu/risc-v/virt64/interrupt_gcc.o
 .data          0x0000000000000000        0x0 /home/ddddddd/my_learn/cpu_relative/prog/src/rtthread/libcpu/risc-v/virt64/interrupt_gcc.o
 .bss           0x0000000000000000        0x0 /home/ddddddd/my_learn/cpu_relative/prog/src/rtthread/libcpu/risc-v/virt64/interrupt_gcc.o
 .data          0x0000000000000000        0x0 /home/ddddddd/my_learn/cpu_relative/prog/src/rtthread/libcpu/risc-v/virt64/div.o
 .bss           0x0000000000000000        0x0 /home/ddddddd/my_learn/cpu_relative/prog/src/rtthread/libcpu/risc-v/virt64/div.o
 .text          0x0000000000000000        0x0 build/kernel/components/finsh/cmd.o
 .data          0x0000000000000000        0x0 build/kernel/components/finsh/cmd.o
 .bss           0x0000000000000000        0x0 build/kernel/components/finsh/cmd.o
 .text          0x0000000000000000        0x0 build/kernel/components/finsh/shell.o
 .data          0x0000000000000000        0x0 build/kernel/components/finsh/shell.o
 .bss           0x0000000000000000        0x0 build/kernel/components/finsh/shell.o
 .text.finsh_set_prompt
                0x0000000000000000       0x7c build/kernel/components/finsh/shell.o
 .text.finsh_get_prompt_mode
                0x0000000000000000       0x58 build/kernel/components/finsh/shell.o
 .text.finsh_get_device
                0x0000000000000000       0x50 build/kernel/components/finsh/shell.o
 .text.finsh_set_echo
                0x0000000000000000       0x6c build/kernel/components/finsh/shell.o
 .text.finsh_get_echo
                0x0000000000000000       0x54 build/kernel/components/finsh/shell.o
 .text.finsh_system_function_init
                0x0000000000000000       0x14 build/kernel/components/finsh/shell.o
 .text.finsh_system_var_init
                0x0000000000000000       0x14 build/kernel/components/finsh/shell.o
 .rodata.__FUNCTION__.1
                0x0000000000000000        0xf build/kernel/components/finsh/shell.o
 .rodata.__FUNCTION__.2
                0x0000000000000000        0xf build/kernel/components/finsh/shell.o
 .rodata.__FUNCTION__.3
                0x0000000000000000       0x11 build/kernel/components/finsh/shell.o
 .rodata.__FUNCTION__.7
                0x0000000000000000       0x16 build/kernel/components/finsh/shell.o
 .text          0x0000000000000000        0x0 build/kernel/components/finsh/msh_file.o
 .data          0x0000000000000000        0x0 build/kernel/components/finsh/msh_file.o
 .bss           0x0000000000000000        0x0 build/kernel/components/finsh/msh_file.o
 .text          0x0000000000000000        0x0 build/kernel/components/finsh/msh.o
 .data          0x0000000000000000        0x0 build/kernel/components/finsh/msh.o
 .bss           0x0000000000000000        0x0 build/kernel/components/finsh/msh.o
 .text          0x0000000000000000        0x0 build/kernel/components/dfs/src/dfs_fs.o
 .data          0x0000000000000000        0x0 build/kernel/components/dfs/src/dfs_fs.o
 .bss           0x0000000000000000        0x0 build/kernel/components/dfs/src/dfs_fs.o
 .text.dfs_filesystem_get_mounted_path
                0x0000000000000000       0x74 build/kernel/components/dfs/src/dfs_fs.o
 .rodata.dfs_filesystem_get_partition.str1.8
                0x0000000000000000       0x6c build/kernel/components/dfs/src/dfs_fs.o
 .text.dfs_filesystem_get_partition
                0x0000000000000000      0x1a0 build/kernel/components/dfs/src/dfs_fs.o
 .rodata.__FUNCTION__.0
                0x0000000000000000       0x1d build/kernel/components/dfs/src/dfs_fs.o
 .text          0x0000000000000000        0x0 build/kernel/components/dfs/src/dfs_posix.o
 .data          0x0000000000000000        0x0 build/kernel/components/dfs/src/dfs_posix.o
 .bss           0x0000000000000000        0x0 build/kernel/components/dfs/src/dfs_posix.o
 .text.fstat    0x0000000000000000       0x80 build/kernel/components/dfs/src/dfs_posix.o
 .text.fsync    0x0000000000000000       0x64 build/kernel/components/dfs/src/dfs_posix.o
 .text.fcntl    0x0000000000000000       0x98 build/kernel/components/dfs/src/dfs_posix.o
 .text.ioctl    0x0000000000000000       0x3c build/kernel/components/dfs/src/dfs_posix.o
 .text.ftruncate
                0x0000000000000000       0x94 build/kernel/components/dfs/src/dfs_posix.o
 .text.statfs   0x0000000000000000       0x34 build/kernel/components/dfs/src/dfs_posix.o
 .text.rmdir    0x0000000000000000        0x8 build/kernel/components/dfs/src/dfs_posix.o
 .text.telldir  0x0000000000000000       0x6c build/kernel/components/dfs/src/dfs_posix.o
 .text.seekdir  0x0000000000000000       0x7c build/kernel/components/dfs/src/dfs_posix.o
 .text.access   0x0000000000000000       0x24 build/kernel/components/dfs/src/dfs_posix.o
 .text          0x0000000000000000        0x0 build/kernel/components/dfs/src/dfs.o
 .data          0x0000000000000000        0x0 build/kernel/components/dfs/src/dfs.o
 .bss           0x0000000000000000        0x0 build/kernel/components/dfs/src/dfs.o
 .text.dfs_fdtable_get
                0x0000000000000000        0xc build/kernel/components/dfs/src/dfs.o
 .text          0x0000000000000000        0x0 build/kernel/components/dfs/src/dfs_file.o
 .data          0x0000000000000000        0x0 build/kernel/components/dfs/src/dfs_file.o
 .bss           0x0000000000000000        0x0 build/kernel/components/dfs/src/dfs_file.o
 .text.dfs_file_ioctl
                0x0000000000000000       0x78 build/kernel/components/dfs/src/dfs_file.o
 .text.dfs_file_flush
                0x0000000000000000       0x24 build/kernel/components/dfs/src/dfs_file.o
 .text.dfs_file_ftruncate
                0x0000000000000000       0x6c build/kernel/components/dfs/src/dfs_file.o
 .text          0x0000000000000000        0x0 build/kernel/components/dfs/filesystems/devfs/devfs.o
 .data          0x0000000000000000        0x0 build/kernel/components/dfs/filesystems/devfs/devfs.o
 .bss           0x0000000000000000        0x0 build/kernel/components/dfs/filesystems/devfs/devfs.o
 .text          0x0000000000000000        0x0 build/kernel/components/dfs/filesystems/romfs/dfs_romfs.o
 .data          0x0000000000000000        0x0 build/kernel/components/dfs/filesystems/romfs/dfs_romfs.o
 .bss           0x0000000000000000        0x0 build/kernel/components/dfs/filesystems/romfs/dfs_romfs.o
 .text          0x0000000000000000        0x0 build/kernel/components/dfs/filesystems/romfs/romfs.o
 .data          0x0000000000000000        0x0 build/kernel/components/dfs/filesystems/romfs/romfs.o
 .bss           0x0000000000000000        0x0 build/kernel/components/dfs/filesystems/romfs/romfs.o
 .rodata.str1.8
                0x0000000000000000       0x1a build/kernel/components/dfs/filesystems/romfs/romfs.o
 .rodata._dummy
                0x0000000000000000       0x20 build/kernel/components/dfs/filesystems/romfs/romfs.o
 .rodata._dummy_dummy_txt
                0x0000000000000000       0x11 build/kernel/components/dfs/filesystems/romfs/romfs.o
 .rodata._dummy_txt
                0x0000000000000000       0x11 build/kernel/components/dfs/filesystems/romfs/romfs.o
 .rodata._root_dirent
                0x0000000000000000       0x40 build/kernel/components/dfs/filesystems/romfs/romfs.o
 .rodata.romfs_root
                0x0000000000000000       0x20 build/kernel/components/dfs/filesystems/romfs/romfs.o
 .comment       0x0000000000000000       0x2c build/kernel/components/dfs/filesystems/romfs/romfs.o
 .note.GNU-stack
                0x0000000000000000        0x0 build/kernel/components/dfs/filesystems/romfs/romfs.o
 .riscv.attributes
                0x0000000000000000       0x24 build/kernel/components/dfs/filesystems/romfs/romfs.o
 .text          0x0000000000000000        0x0 build/kernel/components/drivers/serial/serial.o
 .data          0x0000000000000000        0x0 build/kernel/components/drivers/serial/serial.o
 .bss           0x0000000000000000        0x0 build/kernel/components/drivers/serial/serial.o
 .text          0x0000000000000000        0x0 build/kernel/components/drivers/src/waitqueue.o
 .data          0x0000000000000000        0x0 build/kernel/components/drivers/src/waitqueue.o
 .bss           0x0000000000000000        0x0 build/kernel/components/drivers/src/waitqueue.o
 .text.__wqueue_default_wake
                0x0000000000000000        0x8 build/kernel/components/drivers/src/waitqueue.o
 .text.rt_wqueue_add
                0x0000000000000000       0x54 build/kernel/components/drivers/src/waitqueue.o
 .text.rt_wqueue_remove
                0x0000000000000000       0x48 build/kernel/components/drivers/src/waitqueue.o
 .text.rt_wqueue_wakeup
                0x0000000000000000       0xdc build/kernel/components/drivers/src/waitqueue.o
 .rodata.rt_wqueue_wait.str1.8
                0x0000000000000000       0x2a build/kernel/components/drivers/src/waitqueue.o
 .text.rt_wqueue_wait
                0x0000000000000000      0x194 build/kernel/components/drivers/src/waitqueue.o
 .rodata.__FUNCTION__.0
                0x0000000000000000        0xf build/kernel/components/drivers/src/waitqueue.o
 .comment       0x0000000000000000       0x2c build/kernel/components/drivers/src/waitqueue.o
 .note.GNU-stack
                0x0000000000000000        0x0 build/kernel/components/drivers/src/waitqueue.o
 .riscv.attributes
                0x0000000000000000       0x24 build/kernel/components/drivers/src/waitqueue.o
 .text          0x0000000000000000        0x0 build/kernel/components/drivers/src/pipe.o
 .data          0x0000000000000000        0x0 build/kernel/components/drivers/src/pipe.o
 .bss           0x0000000000000000        0x0 build/kernel/components/drivers/src/pipe.o
 .text.rt_pipe_control
                0x0000000000000000        0x8 build/kernel/components/drivers/src/pipe.o
 .text.rt_pipe_open
                0x0000000000000000       0x7c build/kernel/components/drivers/src/pipe.o
 .text.rt_pipe_close
                0x0000000000000000       0x74 build/kernel/components/drivers/src/pipe.o
 .text.rt_pipe_read
                0x0000000000000000       0xbc build/kernel/components/drivers/src/pipe.o
 .text.rt_pipe_write
                0x0000000000000000       0xbc build/kernel/components/drivers/src/pipe.o
 .rodata.rt_pipe_create.str1.8
                0x0000000000000000        0xf build/kernel/components/drivers/src/pipe.o
 .text.rt_pipe_create
                0x0000000000000000      0x13c build/kernel/components/drivers/src/pipe.o
 .text.rt_pipe_delete
                0x0000000000000000       0x8c build/kernel/components/drivers/src/pipe.o
 .rodata.__FUNCTION__.1
                0x0000000000000000        0xf build/kernel/components/drivers/src/pipe.o
 .comment       0x0000000000000000       0x2c build/kernel/components/drivers/src/pipe.o
 .note.GNU-stack
                0x0000000000000000        0x0 build/kernel/components/drivers/src/pipe.o
 .riscv.attributes
                0x0000000000000000       0x24 build/kernel/components/drivers/src/pipe.o
 .text          0x0000000000000000        0x0 build/kernel/components/drivers/src/workqueue.o
 .data          0x0000000000000000        0x0 build/kernel/components/drivers/src/workqueue.o
 .bss           0x0000000000000000        0x0 build/kernel/components/drivers/src/workqueue.o
 .text.rt_list_remove
                0x0000000000000000       0x1c build/kernel/components/drivers/src/workqueue.o
 .rodata._workqueue_submit_work.str1.8
                0x0000000000000000        0x5 build/kernel/components/drivers/src/workqueue.o
 .text._workqueue_submit_work
                0x0000000000000000      0x1b4 build/kernel/components/drivers/src/workqueue.o
 .rodata._delayed_work_timeout_handler.str1.8
                0x0000000000000000       0x11 build/kernel/components/drivers/src/workqueue.o
 .text._delayed_work_timeout_handler
                0x0000000000000000      0x110 build/kernel/components/drivers/src/workqueue.o
 .text._workqueue_cancel_work
                0x0000000000000000       0xb4 build/kernel/components/drivers/src/workqueue.o
 .text._workqueue_thread_entry
                0x0000000000000000       0xf8 build/kernel/components/drivers/src/workqueue.o
 .rodata.rt_workqueue_create.str1.8
                0x0000000000000000        0x7 build/kernel/components/drivers/src/workqueue.o
 .text.rt_workqueue_create
                0x0000000000000000       0xd4 build/kernel/components/drivers/src/workqueue.o
 .rodata.rt_workqueue_dowork.str1.8
                0x0000000000000000       0x10 build/kernel/components/drivers/src/workqueue.o
 .text.rt_workqueue_dowork
                0x0000000000000000       0x7c build/kernel/components/drivers/src/workqueue.o
 .text.rt_workqueue_submit_work
                0x0000000000000000       0x88 build/kernel/components/drivers/src/workqueue.o
 .text.rt_workqueue_critical_work
                0x0000000000000000       0xec build/kernel/components/drivers/src/workqueue.o
 .text.rt_workqueue_cancel_work
                0x0000000000000000       0x78 build/kernel/components/drivers/src/workqueue.o
 .text.rt_workqueue_cancel_work_sync
                0x0000000000000000       0x9c build/kernel/components/drivers/src/workqueue.o
 .text.rt_workqueue_cancel_all_work
                0x0000000000000000       0x90 build/kernel/components/drivers/src/workqueue.o
 .text.rt_workqueue_destroy
                0x0000000000000000       0x74 build/kernel/components/drivers/src/workqueue.o
 .text.rt_delayed_work_init
                0x0000000000000000       0x1c build/kernel/components/drivers/src/workqueue.o
 .rodata.__FUNCTION__.0
                0x0000000000000000       0x1d build/kernel/components/drivers/src/workqueue.o
 .rodata.__FUNCTION__.1
                0x0000000000000000       0x1e build/kernel/components/drivers/src/workqueue.o
 .rodata.__FUNCTION__.2
                0x0000000000000000       0x19 build/kernel/components/drivers/src/workqueue.o
 .rodata.__FUNCTION__.3
                0x0000000000000000       0x1b build/kernel/components/drivers/src/workqueue.o
 .rodata.__FUNCTION__.4
                0x0000000000000000       0x19 build/kernel/components/drivers/src/workqueue.o
 .rodata.__FUNCTION__.5
                0x0000000000000000       0x1e build/kernel/components/drivers/src/workqueue.o
 .rodata.__FUNCTION__.6
                0x0000000000000000       0x14 build/kernel/components/drivers/src/workqueue.o
 .rodata.__FUNCTION__.7
                0x0000000000000000       0x15 build/kernel/components/drivers/src/workqueue.o
 .rodata.__FUNCTION__.8
                0x0000000000000000       0x18 build/kernel/components/drivers/src/workqueue.o
 .comment       0x0000000000000000       0x2c build/kernel/components/drivers/src/workqueue.o
 .note.GNU-stack
                0x0000000000000000        0x0 build/kernel/components/drivers/src/workqueue.o
 .riscv.attributes
                0x0000000000000000       0x24 build/kernel/components/drivers/src/workqueue.o
 .text          0x0000000000000000        0x0 build/kernel/components/drivers/src/completion.o
 .data          0x0000000000000000        0x0 build/kernel/components/drivers/src/completion.o
 .bss           0x0000000000000000        0x0 build/kernel/components/drivers/src/completion.o
 .text          0x0000000000000000        0x0 build/kernel/components/drivers/src/ringblk_buf.o
 .data          0x0000000000000000        0x0 build/kernel/components/drivers/src/ringblk_buf.o
 .bss           0x0000000000000000        0x0 build/kernel/components/drivers/src/ringblk_buf.o
 .rodata.rt_rbb_init.str1.8
                0x0000000000000000       0x1a build/kernel/components/drivers/src/ringblk_buf.o
 .text.rt_rbb_init
                0x0000000000000000       0xdc build/kernel/components/drivers/src/ringblk_buf.o
 .text.rt_rbb_create
                0x0000000000000000       0xc0 build/kernel/components/drivers/src/ringblk_buf.o
 .text.rt_rbb_destroy
                0x0000000000000000       0x60 build/kernel/components/drivers/src/ringblk_buf.o
 .rodata.rt_rbb_blk_alloc.str1.8
                0x0000000000000000       0x16 build/kernel/components/drivers/src/ringblk_buf.o
 .text.rt_rbb_blk_alloc
                0x0000000000000000      0x230 build/kernel/components/drivers/src/ringblk_buf.o
 .rodata.rt_rbb_blk_put.str1.8
                0x0000000000000000       0x2b build/kernel/components/drivers/src/ringblk_buf.o
 .text.rt_rbb_blk_put
                0x0000000000000000       0x70 build/kernel/components/drivers/src/ringblk_buf.o
 .text.rt_rbb_blk_get
                0x0000000000000000       0x8c build/kernel/components/drivers/src/ringblk_buf.o
 .text.rt_rbb_blk_size
                0x0000000000000000       0x48 build/kernel/components/drivers/src/ringblk_buf.o
 .text.rt_rbb_blk_buf
                0x0000000000000000       0x44 build/kernel/components/drivers/src/ringblk_buf.o
 .rodata.rt_rbb_blk_free.str1.8
                0x0000000000000000       0x23 build/kernel/components/drivers/src/ringblk_buf.o
 .text.rt_rbb_blk_free
                0x0000000000000000       0xc0 build/kernel/components/drivers/src/ringblk_buf.o
 .rodata.rt_rbb_blk_queue_get.str1.8
                0x0000000000000000        0xa build/kernel/components/drivers/src/ringblk_buf.o
 .text.rt_rbb_blk_queue_get
                0x0000000000000000      0x158 build/kernel/components/drivers/src/ringblk_buf.o
 .text.rt_rbb_blk_queue_len
                0x0000000000000000       0x88 build/kernel/components/drivers/src/ringblk_buf.o
 .text.rt_rbb_blk_queue_buf
                0x0000000000000000       0x48 build/kernel/components/drivers/src/ringblk_buf.o
 .text.rt_rbb_blk_queue_free
                0x0000000000000000       0xac build/kernel/components/drivers/src/ringblk_buf.o
 .text.rt_rbb_next_blk_queue_len
                0x0000000000000000       0xc0 build/kernel/components/drivers/src/ringblk_buf.o
 .text.rt_rbb_get_buf_size
                0x0000000000000000       0x44 build/kernel/components/drivers/src/ringblk_buf.o
 .rodata.__FUNCTION__.0
                0x0000000000000000       0x14 build/kernel/components/drivers/src/ringblk_buf.o
 .rodata.__FUNCTION__.1
                0x0000000000000000       0x1a build/kernel/components/drivers/src/ringblk_buf.o
 .rodata.__FUNCTION__.10
                0x0000000000000000        0xf build/kernel/components/drivers/src/ringblk_buf.o
 .rodata.__FUNCTION__.11
                0x0000000000000000       0x16 build/kernel/components/drivers/src/ringblk_buf.o
 .rodata.__FUNCTION__.12
                0x0000000000000000       0x11 build/kernel/components/drivers/src/ringblk_buf.o
 .rodata.__FUNCTION__.13
                0x0000000000000000        0xf build/kernel/components/drivers/src/ringblk_buf.o
 .rodata.__FUNCTION__.14
                0x0000000000000000        0xc build/kernel/components/drivers/src/ringblk_buf.o
 .rodata.__FUNCTION__.2
                0x0000000000000000       0x16 build/kernel/components/drivers/src/ringblk_buf.o
 .rodata.__FUNCTION__.3
                0x0000000000000000       0x15 build/kernel/components/drivers/src/ringblk_buf.o
 .rodata.__FUNCTION__.4
                0x0000000000000000       0x15 build/kernel/components/drivers/src/ringblk_buf.o
 .rodata.__FUNCTION__.5
                0x0000000000000000       0x15 build/kernel/components/drivers/src/ringblk_buf.o
 .rodata.__FUNCTION__.6
                0x0000000000000000       0x10 build/kernel/components/drivers/src/ringblk_buf.o
 .rodata.__FUNCTION__.7
                0x0000000000000000        0xf build/kernel/components/drivers/src/ringblk_buf.o
 .rodata.__FUNCTION__.8
                0x0000000000000000       0x10 build/kernel/components/drivers/src/ringblk_buf.o
 .rodata.__FUNCTION__.9
                0x0000000000000000        0xf build/kernel/components/drivers/src/ringblk_buf.o
 .comment       0x0000000000000000       0x2c build/kernel/components/drivers/src/ringblk_buf.o
 .note.GNU-stack
                0x0000000000000000        0x0 build/kernel/components/drivers/src/ringblk_buf.o
 .riscv.attributes
                0x0000000000000000       0x24 build/kernel/components/drivers/src/ringblk_buf.o
 .text          0x0000000000000000        0x0 build/kernel/components/drivers/src/ringbuffer.o
 .data          0x0000000000000000        0x0 build/kernel/components/drivers/src/ringbuffer.o
 .bss           0x0000000000000000        0x0 build/kernel/components/drivers/src/ringbuffer.o
 .rodata.rt_ringbuffer_init.str1.8
                0x0000000000000000       0x19 build/kernel/components/drivers/src/ringbuffer.o
 .text.rt_ringbuffer_init
                0x0000000000000000       0x88 build/kernel/components/drivers/src/ringbuffer.o
 .text.rt_ringbuffer_putchar_force
                0x0000000000000000      0x140 build/kernel/components/drivers/src/ringbuffer.o
 .text.rt_ringbuffer_data_len
                0x0000000000000000       0x6c build/kernel/components/drivers/src/ringbuffer.o
 .text.rt_ringbuffer_put
                0x0000000000000000      0x17c build/kernel/components/drivers/src/ringbuffer.o
 .text.rt_ringbuffer_put_force
                0x0000000000000000      0x220 build/kernel/components/drivers/src/ringbuffer.o
 .text.rt_ringbuffer_get
                0x0000000000000000      0x180 build/kernel/components/drivers/src/ringbuffer.o
 .text.rt_ringbuffer_peak
                0x0000000000000000       0xe8 build/kernel/components/drivers/src/ringbuffer.o
 .text.rt_ringbuffer_putchar
                0x0000000000000000       0xe8 build/kernel/components/drivers/src/ringbuffer.o
 .text.rt_ringbuffer_getchar
                0x0000000000000000       0xec build/kernel/components/drivers/src/ringbuffer.o
 .text.rt_ringbuffer_reset
                0x0000000000000000       0x44 build/kernel/components/drivers/src/ringbuffer.o
 .text.rt_ringbuffer_create
                0x0000000000000000       0xa8 build/kernel/components/drivers/src/ringbuffer.o
 .text.rt_ringbuffer_destroy
                0x0000000000000000       0x54 build/kernel/components/drivers/src/ringbuffer.o
 .rodata.__FUNCTION__.0
                0x0000000000000000       0x16 build/kernel/components/drivers/src/ringbuffer.o
 .rodata.__FUNCTION__.1
                0x0000000000000000       0x15 build/kernel/components/drivers/src/ringbuffer.o
 .rodata.__FUNCTION__.10
                0x0000000000000000       0x13 build/kernel/components/drivers/src/ringbuffer.o
 .rodata.__FUNCTION__.2
                0x0000000000000000       0x14 build/kernel/components/drivers/src/ringbuffer.o
 .rodata.__FUNCTION__.3
                0x0000000000000000       0x16 build/kernel/components/drivers/src/ringbuffer.o
 .rodata.__FUNCTION__.4
                0x0000000000000000       0x1c build/kernel/components/drivers/src/ringbuffer.o
 .rodata.__FUNCTION__.5
                0x0000000000000000       0x16 build/kernel/components/drivers/src/ringbuffer.o
 .rodata.__FUNCTION__.6
                0x0000000000000000       0x13 build/kernel/components/drivers/src/ringbuffer.o
 .rodata.__FUNCTION__.7
                0x0000000000000000       0x12 build/kernel/components/drivers/src/ringbuffer.o
 .rodata.__FUNCTION__.8
                0x0000000000000000       0x18 build/kernel/components/drivers/src/ringbuffer.o
 .rodata.__FUNCTION__.9
                0x0000000000000000       0x12 build/kernel/components/drivers/src/ringbuffer.o
 .comment       0x0000000000000000       0x2c build/kernel/components/drivers/src/ringbuffer.o
 .note.GNU-stack
                0x0000000000000000        0x0 build/kernel/components/drivers/src/ringbuffer.o
 .riscv.attributes
                0x0000000000000000       0x24 build/kernel/components/drivers/src/ringbuffer.o
 .text          0x0000000000000000        0x0 build/kernel/components/drivers/src/dataqueue.o
 .data          0x0000000000000000        0x0 build/kernel/components/drivers/src/dataqueue.o
 .bss           0x0000000000000000        0x0 build/kernel/components/drivers/src/dataqueue.o
 .text          0x0000000000000000        0x0 build/kernel/components/drivers/misc/pin.o
 .data          0x0000000000000000        0x0 build/kernel/components/drivers/misc/pin.o
 .bss           0x0000000000000000        0x0 build/kernel/components/drivers/misc/pin.o
 .rodata._pin_control.str1.8
                0x0000000000000000        0xf build/kernel/components/drivers/misc/pin.o
 .text._pin_control
                0x0000000000000000       0x70 build/kernel/components/drivers/misc/pin.o
 .text._pin_write
                0x0000000000000000       0x88 build/kernel/components/drivers/misc/pin.o
 .text._pin_read
                0x0000000000000000       0x88 build/kernel/components/drivers/misc/pin.o
 .text.rt_device_pin_register
                0x0000000000000000       0x7c build/kernel/components/drivers/misc/pin.o
 .text.rt_pin_attach_irq
                0x0000000000000000       0xb8 build/kernel/components/drivers/misc/pin.o
 .text.rt_pin_detach_irq
                0x0000000000000000       0x84 build/kernel/components/drivers/misc/pin.o
 .text.rt_pin_irq_enable
                0x0000000000000000       0x98 build/kernel/components/drivers/misc/pin.o
 .rodata.__FUNCTION__.4
                0x0000000000000000       0x12 build/kernel/components/drivers/misc/pin.o
 .rodata.__FUNCTION__.5
                0x0000000000000000       0x12 build/kernel/components/drivers/misc/pin.o
 .rodata.__FUNCTION__.6
                0x0000000000000000       0x12 build/kernel/components/drivers/misc/pin.o
 .rodata.__FUNCTION__.7
                0x0000000000000000        0xa build/kernel/components/drivers/misc/pin.o
 .rodata.__FUNCTION__.8
                0x0000000000000000        0xb build/kernel/components/drivers/misc/pin.o
 .rodata.__FUNCTION__.9
                0x0000000000000000        0xd build/kernel/components/drivers/misc/pin.o

Memory Configuration

Name             Origin             Length             Attributes
SRAM             0x0000000080000000 0x00000000007ff000
*default*        0x0000000000000000 0xffffffffffffffff

Linker script and memory map

                0x0000000000004e20                __STACKSIZE__ = 0x4e20
                0x0000000080000000                __START_ADDR__ = 0x80000000
                0x0000000080000000                . = __START_ADDR__

.start          0x0000000080000000       0x54
 *(.start)
 .start         0x0000000080000000       0x54 /home/ddddddd/my_learn/cpu_relative/prog/src/rtthread/libcpu/risc-v/virt64/startup_gcc.o
                0x0000000080000000                _start
                0x0000000080000058                . = ALIGN (0x8)

.text           0x0000000080000058    0x124c8
 *(.text)
 .text          0x0000000080000058       0x24 /home/ddddddd/my_learn/cpu_relative/prog/src/rtthread/libcpu/risc-v/virt64/muldi3.o
                0x0000000080000058                __muldi3
 .text          0x000000008000007c      0x154 /home/ddddddd/my_learn/cpu_relative/prog/src/rtthread/libcpu/risc-v/virt64/context_gcc.o
                0x000000008000007c                rt_hw_interrupt_disable
                0x0000000080000084                rt_hw_interrupt_enable
                0x000000008000008c                rt_hw_context_switch_to
                0x000000008000009c                rt_hw_context_switch
                0x0000000080000138                rt_hw_context_switch_exit
 .text          0x00000000800001d0      0x100 /home/ddddddd/my_learn/cpu_relative/prog/src/rtthread/libcpu/risc-v/virt64/div.o
                0x00000000800001d0                __udivsi3
                0x00000000800001e8                __umodsi3
                0x0000000080000208                __divsi3
                0x0000000080000210                __divdi3
                0x0000000080000218                __udivdi3
                0x0000000080000260                __umoddi3
                0x0000000080000294                __modsi3
                0x0000000080000294                __moddi3
 *(.text.*)
 .text.CAN_GetData
                0x00000000800002d0       0x50 build/applications/can_util.o
                0x00000000800002d0                CAN_GetData
 .text.CAN_SendData
                0x0000000080000320       0x30 build/applications/can_util.o
                0x0000000080000320                CAN_SendData
 .text.motor_read_entry
                0x0000000080000350       0x28 build/applications/main.o
 .text.thread_sample
                0x0000000080000378       0x70 build/applications/main.o
                0x0000000080000378                thread_sample
 .text.startup.main
                0x00000000800003e8       0x28 build/applications/main.o
                0x00000000800003e8                main
 .text.PID_InitPID
                0x0000000080000410       0x1c build/applications/pid_alg.o
                0x0000000080000410                PID_InitPID
 .text.PID_ClacPID
                0x000000008000042c       0xe0 build/applications/pid_alg.o
                0x000000008000042c                PID_ClacPID
 .text.Motor_SendMessage
                0x000000008000050c       0x88 build/applications/motor_periph.o
                0x000000008000050c                Motor_SendMessage
 .text.Motor_MotorEncoderDecode
                0x0000000080000594       0x7c build/applications/motor_periph.o
                0x0000000080000594                Motor_MotorEncoderDecode
 .text.Motor_MotorPID_Clac
                0x0000000080000610        0xc build/applications/motor_periph.o
                0x0000000080000610                Motor_MotorPID_Clac
 .text.Motor_MotorGroupsPID_Clac
                0x000000008000061c      0x12c build/applications/motor_periph.o
                0x000000008000061c                Motor_MotorGroupsPID_Clac
 .text.Motor_motorInit
                0x0000000080000748       0x64 build/applications/motor_periph.o
                0x0000000080000748                Motor_motorInit
 .text.Motor_MotorGroupInit
                0x00000000800007ac      0x154 build/applications/motor_periph.o
                0x00000000800007ac                Motor_MotorGroupInit
 .text.Motor_Chassis_Decoder
                0x0000000080000900       0x8c build/applications/motor_periph.o
                0x0000000080000900                Motor_Chassis_Decoder
 .text.Task_MotorControl
                0x000000008000098c       0x74 build/applications/motor_periph.o
                0x000000008000098c                Task_MotorControl
 .text.plic_set_priority
                0x0000000080000a00       0x14 build/driver/plic.o
                0x0000000080000a00                plic_set_priority
 .text.plic_irq_enable
                0x0000000080000a14       0x3c build/driver/plic.o
                0x0000000080000a14                plic_irq_enable
 .text.plic_set_threshold
                0x0000000080000a50       0x18 build/driver/plic.o
                0x0000000080000a50                plic_set_threshold
 .text.plic_claim
                0x0000000080000a68       0x40 build/driver/plic.o
                0x0000000080000a68                plic_claim
 .text.plic_complete
                0x0000000080000aa8       0x18 build/driver/plic.o
                0x0000000080000aa8                plic_complete
 .text.drv_uart_putc
                0x0000000080000ac0       0x1c build/driver/drv_uart.o
 .text.drv_uart_getc
                0x0000000080000adc       0x1c build/driver/drv_uart.o
 .text.rt_uart_configure
                0x0000000080000af8       0x5c build/driver/drv_uart.o
 .text.rt_hw_uart_isr
                0x0000000080000b54        0xc build/driver/drv_uart.o
 .text.uart_control
                0x0000000080000b60       0x40 build/driver/drv_uart.o
 .text.virt_uart_init
                0x0000000080000ba0       0x34 build/driver/drv_uart.o
                0x0000000080000ba0                virt_uart_init
 .text.rt_hw_uart_init
                0x0000000080000bd4       0xa0 build/driver/drv_uart.o
                0x0000000080000bd4                rt_hw_uart_init
 .text.rt_hw_cpu_reset
                0x0000000080000c74       0x24 build/driver/board.o
                0x0000000080000c74                rt_hw_cpu_reset
 .text.primary_cpu_entry
                0x0000000080000c98       0x34 build/driver/board.o
                0x0000000080000c98                primary_cpu_entry
 .text.rt_hw_board_init
                0x0000000080000ccc       0x68 build/driver/board.o
                0x0000000080000ccc                rt_hw_board_init
 .text.atoi     0x0000000080000d34       0x50 build/driver/lib/stdlib.o
                0x0000000080000d34                atoi
 .text.strlen   0x0000000080000d84        0x4 build/driver/lib/string.o
                0x0000000080000d84                strlen
 .text.strcpy   0x0000000080000d88       0x24 build/driver/lib/string.o
                0x0000000080000d88                strcpy
 .text.strncpy  0x0000000080000dac        0x4 build/driver/lib/string.o
                0x0000000080000dac                strncpy
 .text.strcat   0x0000000080000db0       0x38 build/driver/lib/string.o
                0x0000000080000db0                strcat
 .text.strcmp   0x0000000080000de8        0x4 build/driver/lib/string.o
                0x0000000080000de8                strcmp
 .text.strncmp  0x0000000080000dec        0x4 build/driver/lib/string.o
                0x0000000080000dec                strncmp
 .text.memset   0x0000000080000df0        0x4 build/driver/lib/string.o
                0x0000000080000df0                memset
 .text.memcpy   0x0000000080000df4        0x4 build/driver/lib/string.o
                0x0000000080000df4                memcpy
 .text.memcmp   0x0000000080000df8        0x4 build/driver/lib/string.o
                0x0000000080000df8                memcmp
 .text.strstr   0x0000000080000dfc        0x4 build/driver/lib/string.o
                0x0000000080000dfc                strstr
 .text.strrchr  0x0000000080000e00       0x2c build/driver/lib/string.o
                0x0000000080000e00                strrchr
 .text.rt_device_find
                0x0000000080000e2c        0x8 build/kernel/src/device.o
                0x0000000080000e2c                rt_device_find
 .text.rt_device_register
                0x0000000080000e34       0x78 build/kernel/src/device.o
                0x0000000080000e34                rt_device_register
 .text.rt_device_open
                0x0000000080000eac      0x158 build/kernel/src/device.o
                0x0000000080000eac                rt_device_open
 .text.rt_device_close
                0x0000000080001004       0xac build/kernel/src/device.o
                0x0000000080001004                rt_device_close
 .text.rt_device_read
                0x00000000800010b0       0xd4 build/kernel/src/device.o
                0x00000000800010b0                rt_device_read
 .text.rt_device_write
                0x0000000080001184       0xd4 build/kernel/src/device.o
                0x0000000080001184                rt_device_write
 .text.rt_device_control
                0x0000000080001258       0xac build/kernel/src/device.o
                0x0000000080001258                rt_device_control
 .text.rt_device_set_rx_indicate
                0x0000000080001304       0x78 build/kernel/src/device.o
                0x0000000080001304                rt_device_set_rx_indicate
 .text.rt_mem_setname
                0x000000008000137c       0x50 build/kernel/src/mem.o
 .text.list_mem
                0x00000000800013cc       0x4c build/kernel/src/mem.o
                0x00000000800013cc                list_mem
 .text.memtrace
                0x0000000080001418      0x198 build/kernel/src/mem.o
                0x0000000080001418                memtrace
 .text.plug_holes
                0x00000000800015b0      0x128 build/kernel/src/mem.o
 .text.memcheck
                0x00000000800016d8       0xec build/kernel/src/mem.o
                0x00000000800016d8                memcheck
 .text.rt_system_heap_init
                0x00000000800017c4      0x170 build/kernel/src/mem.o
                0x00000000800017c4                rt_system_heap_init
 .text.rt_malloc
                0x0000000080001934      0x32c build/kernel/src/mem.o
                0x0000000080001934                rt_malloc
 .text.rt_calloc
                0x0000000080001c60       0x40 build/kernel/src/mem.o
                0x0000000080001c60                rt_calloc
 .text.rt_free  0x0000000080001ca0      0x210 build/kernel/src/mem.o
                0x0000000080001ca0                rt_free
 .text.rt_realloc
                0x0000000080001eb0      0x1fc build/kernel/src/mem.o
                0x0000000080001eb0                rt_realloc
 .text._rt_thread_cleanup_execute
                0x00000000800020ac       0x44 build/kernel/src/thread.o
 .text._rt_thread_exit
                0x00000000800020f0       0x80 build/kernel/src/thread.o
 .text._rt_thread_init.constprop.0
                0x0000000080002170      0x114 build/kernel/src/thread.o
 .text.rt_thread_timeout
                0x0000000080002284       0xd0 build/kernel/src/thread.o
                0x0000000080002284                rt_thread_timeout
 .text.rt_thread_init
                0x0000000080002354       0xd8 build/kernel/src/thread.o
                0x0000000080002354                rt_thread_init
 .text.rt_thread_self
                0x000000008000242c        0xc build/kernel/src/thread.o
                0x000000008000242c                rt_thread_self
 .text.rt_thread_detach
                0x0000000080002438       0xfc build/kernel/src/thread.o
                0x0000000080002438                rt_thread_detach
 .text.rt_thread_create
                0x0000000080002534       0xc0 build/kernel/src/thread.o
                0x0000000080002534                rt_thread_create
 .text.rt_thread_delete
                0x00000000800025f4       0xe0 build/kernel/src/thread.o
                0x00000000800025f4                rt_thread_delete
 .text.rt_thread_suspend
                0x00000000800026d4      0x104 build/kernel/src/thread.o
                0x00000000800026d4                rt_thread_suspend
 .text.rt_thread_sleep
                0x00000000800027d8       0xc8 build/kernel/src/thread.o
                0x00000000800027d8                rt_thread_sleep
 .text.rt_thread_delay
                0x00000000800028a0        0x4 build/kernel/src/thread.o
                0x00000000800028a0                rt_thread_delay
 .text.rt_thread_mdelay
                0x00000000800028a4       0x1c build/kernel/src/thread.o
                0x00000000800028a4                rt_thread_mdelay
 .text.rt_thread_resume
                0x00000000800028c0       0xd8 build/kernel/src/thread.o
                0x00000000800028c0                rt_thread_resume
 .text.rt_thread_startup
                0x0000000080002998       0xc0 build/kernel/src/thread.o
                0x0000000080002998                rt_thread_startup
 .text.rt_thread_control
                0x0000000080002a58      0x148 build/kernel/src/thread.o
                0x0000000080002a58                rt_thread_control
 .text.print_number
                0x0000000080002ba0      0x2d0 build/kernel/src/kservice.o
 .text.rt_set_errno
                0x0000000080002e70       0x40 build/kernel/src/kservice.o
                0x0000000080002e70                rt_set_errno
 .text.rt_memset
                0x0000000080002eb0       0xac build/kernel/src/kservice.o
                0x0000000080002eb0                rt_memset
 .text.rt_memcpy
                0x0000000080002f5c       0xe0 build/kernel/src/kservice.o
                0x0000000080002f5c                rt_memcpy
 .text.rt_memmove
                0x000000008000303c       0x5c build/kernel/src/kservice.o
                0x000000008000303c                rt_memmove
 .text.rt_memcmp
                0x0000000080003098       0x34 build/kernel/src/kservice.o
                0x0000000080003098                rt_memcmp
 .text.rt_strncpy
                0x00000000800030cc       0x44 build/kernel/src/kservice.o
                0x00000000800030cc                rt_strncpy
 .text.rt_strncmp
                0x0000000080003110       0x40 build/kernel/src/kservice.o
                0x0000000080003110                rt_strncmp
 .text.rt_strcmp
                0x0000000080003150       0x24 build/kernel/src/kservice.o
                0x0000000080003150                rt_strcmp
 .text.rt_strlen
                0x0000000080003174       0x1c build/kernel/src/kservice.o
                0x0000000080003174                rt_strlen
 .text.rt_strstr
                0x0000000080003190       0x84 build/kernel/src/kservice.o
                0x0000000080003190                rt_strstr
 .text.rt_strdup
                0x0000000080003214       0x4c build/kernel/src/kservice.o
                0x0000000080003214                rt_strdup
 .text.rt_vsnprintf
                0x0000000080003260      0x510 build/kernel/src/kservice.o
                0x0000000080003260                rt_vsnprintf
 .text.rt_snprintf
                0x0000000080003770       0x34 build/kernel/src/kservice.o
                0x0000000080003770                rt_snprintf
 .text.rt_vsprintf
                0x00000000800037a4       0x10 build/kernel/src/kservice.o
                0x00000000800037a4                rt_vsprintf
 .text.rt_sprintf
                0x00000000800037b4       0x38 build/kernel/src/kservice.o
                0x00000000800037b4                rt_sprintf
 .text.rt_console_get_device
                0x00000000800037ec        0xc build/kernel/src/kservice.o
                0x00000000800037ec                rt_console_get_device
 .text.rt_console_set_device
                0x00000000800037f8       0x70 build/kernel/src/kservice.o
                0x00000000800037f8                rt_console_set_device
 .text.rt_hw_console_output
                0x0000000080003868        0x4 build/kernel/src/kservice.o
                0x0000000080003868                rt_hw_console_output
 .text.rt_kprintf
                0x000000008000386c       0xb0 build/kernel/src/kservice.o
                0x000000008000386c                rt_kprintf
 .text.rt_show_version
                0x000000008000391c       0x54 build/kernel/src/kservice.o
                0x000000008000391c                rt_show_version
 .text.__rt_ffs
                0x0000000080003970       0x84 build/kernel/src/kservice.o
                0x0000000080003970                __rt_ffs
 .text.rt_assert_handler
                0x00000000800039f4       0x50 build/kernel/src/kservice.o
                0x00000000800039f4                rt_assert_handler
 .text.fixedpt_str
                0x0000000080003a44      0x1a8 build/kernel/src/fixpoint.o
                0x0000000080003a44                fixedpt_str
 .text.rt_object_get_information
                0x0000000080003bec       0x3c build/kernel/src/object.o
                0x0000000080003bec                rt_object_get_information
 .text.rt_object_init
                0x0000000080003c28      0x114 build/kernel/src/object.o
                0x0000000080003c28                rt_object_init
 .text.rt_object_detach
                0x0000000080003d3c       0x74 build/kernel/src/object.o
                0x0000000080003d3c                rt_object_detach
 .text.rt_object_allocate
                0x0000000080003db0      0x128 build/kernel/src/object.o
                0x0000000080003db0                rt_object_allocate
 .text.rt_object_delete
                0x0000000080003ed8       0x9c build/kernel/src/object.o
                0x0000000080003ed8                rt_object_delete
 .text.rt_object_is_systemobject
                0x0000000080003f74       0x44 build/kernel/src/object.o
                0x0000000080003f74                rt_object_is_systemobject
 .text.rt_object_get_type
                0x0000000080003fb8       0x44 build/kernel/src/object.o
                0x0000000080003fb8                rt_object_get_type
 .text.rt_object_find
                0x0000000080003ffc       0xd4 build/kernel/src/object.o
                0x0000000080003ffc                rt_object_find
 .text.rti_start
                0x00000000800040d0        0x8 build/kernel/src/components.o
 .text.rti_end  0x00000000800040d8        0x8 build/kernel/src/components.o
 .text.rti_board_start
                0x00000000800040e0        0x8 build/kernel/src/components.o
 .text.rti_board_end
                0x00000000800040e8        0x8 build/kernel/src/components.o
 .text.rt_components_board_init
                0x00000000800040f0       0x48 build/kernel/src/components.o
                0x00000000800040f0                rt_components_board_init
 .text.rt_components_init
                0x0000000080004138       0x48 build/kernel/src/components.o
                0x0000000080004138                rt_components_init
 .text.main_thread_entry
                0x0000000080004180       0x18 build/kernel/src/components.o
                0x0000000080004180                main_thread_entry
 .text.rt_application_init
                0x0000000080004198       0x70 build/kernel/src/components.o
                0x0000000080004198                rt_application_init
 .text.rtthread_startup
                0x0000000080004208       0x3c build/kernel/src/components.o
                0x0000000080004208                rtthread_startup
 .text.entry    0x0000000080004244       0x1c build/kernel/src/components.o
                0x0000000080004244                entry
 .text.rt_system_scheduler_init
                0x0000000080004260       0x34 build/kernel/src/scheduler.o
                0x0000000080004260                rt_system_scheduler_init
 .text.rt_schedule_insert_thread
                0x0000000080004294       0xac build/kernel/src/scheduler.o
                0x0000000080004294                rt_schedule_insert_thread
 .text.rt_schedule_remove_thread
                0x0000000080004340       0x94 build/kernel/src/scheduler.o
                0x0000000080004340                rt_schedule_remove_thread
 .text.rt_system_scheduler_start
                0x00000000800043d4       0x5c build/kernel/src/scheduler.o
                0x00000000800043d4                rt_system_scheduler_start
 .text.rt_schedule
                0x0000000080004430      0x180 build/kernel/src/scheduler.o
                0x0000000080004430                rt_schedule
 .text.rt_enter_critical
                0x00000000800045b0       0x2c build/kernel/src/scheduler.o
                0x00000000800045b0                rt_enter_critical
 .text.rt_exit_critical
                0x00000000800045dc       0x68 build/kernel/src/scheduler.o
                0x00000000800045dc                rt_exit_critical
 .text.rt_tick_get
                0x0000000080004644        0xc build/kernel/src/clock.o
                0x0000000080004644                rt_tick_get
 .text.rt_tick_increase
                0x0000000080004650       0x78 build/kernel/src/clock.o
                0x0000000080004650                rt_tick_increase
 .text.rt_tick_from_millisecond
                0x00000000800046c8       0x80 build/kernel/src/clock.o
                0x00000000800046c8                rt_tick_from_millisecond
 .text.rt_interrupt_enter
                0x0000000080004748       0x44 build/kernel/src/irq.o
                0x0000000080004748                rt_interrupt_enter
 .text.rt_interrupt_leave
                0x000000008000478c       0x44 build/kernel/src/irq.o
                0x000000008000478c                rt_interrupt_leave
 .text.rt_interrupt_get_nest
                0x00000000800047d0       0x30 build/kernel/src/irq.o
                0x00000000800047d0                rt_interrupt_get_nest
 .text._rt_timer_remove
                0x0000000080004800       0x20 build/kernel/src/timer.o
 .text.rt_timer_init
                0x0000000080004820       0xac build/kernel/src/timer.o
                0x0000000080004820                rt_timer_init
 .text.rt_timer_detach
                0x00000000800048cc       0xc0 build/kernel/src/timer.o
                0x00000000800048cc                rt_timer_detach
 .text.rt_timer_start
                0x000000008000498c      0x190 build/kernel/src/timer.o
                0x000000008000498c                rt_timer_start
 .text.rt_timer_stop
                0x0000000080004b1c       0xb8 build/kernel/src/timer.o
                0x0000000080004b1c                rt_timer_stop
 .text.rt_timer_control
                0x0000000080004bd4       0xf8 build/kernel/src/timer.o
                0x0000000080004bd4                rt_timer_control
 .text.rt_timer_check
                0x0000000080004ccc      0x168 build/kernel/src/timer.o
                0x0000000080004ccc                rt_timer_check
 .text.rt_soft_timer_check
                0x0000000080004e34      0x18c build/kernel/src/timer.o
                0x0000000080004e34                rt_soft_timer_check
 .text.rt_thread_timer_entry
                0x0000000080004fc0       0x70 build/kernel/src/timer.o
 .text.rt_system_timer_init
                0x0000000080005030       0x14 build/kernel/src/timer.o
                0x0000000080005030                rt_system_timer_init
 .text.rt_system_timer_thread_init
                0x0000000080005044       0x68 build/kernel/src/timer.o
                0x0000000080005044                rt_system_timer_thread_init
 .text.rt_ipc_list_resume.isra.0
                0x00000000800050ac        0x8 build/kernel/src/ipc.o
 .text.rt_ipc_list_suspend.isra.0
                0x00000000800050b4       0xc8 build/kernel/src/ipc.o
 .text.rt_sem_init
                0x000000008000517c       0xa8 build/kernel/src/ipc.o
                0x000000008000517c                rt_sem_init
 .text.rt_sem_take
                0x0000000080005224      0x1c0 build/kernel/src/ipc.o
                0x0000000080005224                rt_sem_take
 .text.rt_sem_release
                0x00000000800053e4       0xe8 build/kernel/src/ipc.o
                0x00000000800053e4                rt_sem_release
 .text.rt_mutex_init
                0x00000000800054cc       0x80 build/kernel/src/ipc.o
                0x00000000800054cc                rt_mutex_init
 .text.rt_mutex_take
                0x000000008000554c      0x22c build/kernel/src/ipc.o
                0x000000008000554c                rt_mutex_take
 .text.rt_mutex_release
                0x0000000080005778      0x200 build/kernel/src/ipc.o
                0x0000000080005778                rt_mutex_release
 .text.rt_thread_defunct_enqueue
                0x0000000080005978       0x24 build/kernel/src/idle.o
                0x0000000080005978                rt_thread_defunct_enqueue
 .text.rt_thread_defunct_dequeue
                0x000000008000599c       0x34 build/kernel/src/idle.o
                0x000000008000599c                rt_thread_defunct_dequeue
 .text.rt_thread_idle_entry
                0x00000000800059d0      0x118 build/kernel/src/idle.o
 .text.rt_thread_idle_init
                0x0000000080005ae8       0x6c build/kernel/src/idle.o
                0x0000000080005ae8                rt_thread_idle_init
 .text.rt_hw_interrupt_handle
                0x0000000080005b54       0x28 /home/ddddddd/my_learn/cpu_relative/prog/src/rtthread/libcpu/risc-v/virt64/interrupt.o
 .text.rt_hw_interrupt_init
                0x0000000080005b7c       0x2c /home/ddddddd/my_learn/cpu_relative/prog/src/rtthread/libcpu/risc-v/virt64/interrupt.o
                0x0000000080005b7c                rt_hw_interrupt_init
 .text.rt_hw_interrupt_umask
                0x0000000080005ba8       0x34 /home/ddddddd/my_learn/cpu_relative/prog/src/rtthread/libcpu/risc-v/virt64/interrupt.o
                0x0000000080005ba8                rt_hw_interrupt_umask
 .text.rt_hw_interrupt_install
                0x0000000080005bdc       0x34 /home/ddddddd/my_learn/cpu_relative/prog/src/rtthread/libcpu/risc-v/virt64/interrupt.o
                0x0000000080005bdc                rt_hw_interrupt_install
 .text.dump_regs
                0x0000000080005c10      0x2c8 /home/ddddddd/my_learn/cpu_relative/prog/src/rtthread/libcpu/risc-v/virt64/interrupt.o
                0x0000000080005c10                dump_regs
 .text.handle_trap
                0x0000000080005ed8      0x224 /home/ddddddd/my_learn/cpu_relative/prog/src/rtthread/libcpu/risc-v/virt64/interrupt.o
                0x0000000080005ed8                handle_trap
 .text.rt_hw_stack_init
                0x00000000800060fc       0x58 /home/ddddddd/my_learn/cpu_relative/prog/src/rtthread/libcpu/risc-v/virt64/cpuport.o
                0x00000000800060fc                rt_hw_stack_init
 .text.rt_hw_context_switch_interrupt
                0x0000000080006154       0x2c /home/ddddddd/my_learn/cpu_relative/prog/src/rtthread/libcpu/risc-v/virt64/cpuport.o
                0x0000000080006154                rt_hw_context_switch_interrupt
 .text.tick_isr
                0x0000000080006180       0x4c /home/ddddddd/my_learn/cpu_relative/prog/src/rtthread/libcpu/risc-v/virt64/tick.o
                0x0000000080006180                tick_isr
 .text.rt_hw_tick_init
                0x00000000800061cc       0x48 /home/ddddddd/my_learn/cpu_relative/prog/src/rtthread/libcpu/risc-v/virt64/tick.o
                0x00000000800061cc                rt_hw_tick_init
 .text.entry    0x0000000080006214      0x10c /home/ddddddd/my_learn/cpu_relative/prog/src/rtthread/libcpu/risc-v/virt64/interrupt_gcc.o
                0x0000000080006214                trap_entry
 .text.rt_list_len
                0x0000000080006320       0x20 build/kernel/components/finsh/cmd.o
 .text.hello    0x0000000080006340       0x24 build/kernel/components/finsh/cmd.o
                0x0000000080006340                hello
 .text.clear    0x0000000080006364       0x24 build/kernel/components/finsh/cmd.o
 .text.show_wait_queue
                0x0000000080006388       0x74 build/kernel/components/finsh/cmd.o
 .text.version  0x00000000800063fc       0x1c build/kernel/components/finsh/cmd.o
                0x00000000800063fc                version
 .text.list     0x0000000080006418       0xa4 build/kernel/components/finsh/cmd.o
                0x0000000080006418                list
 .text.list_get_next
                0x00000000800064bc       0xe0 build/kernel/components/finsh/cmd.o
 .text.object_split.constprop.0
                0x000000008000659c       0x44 build/kernel/components/finsh/cmd.o
 .text.list_timer
                0x00000000800065e0      0x164 build/kernel/components/finsh/cmd.o
                0x00000000800065e0                list_timer
 .text.list_thread
                0x0000000080006744      0x24c build/kernel/components/finsh/cmd.o
                0x0000000080006744                list_thread
 .text.list_sem
                0x0000000080006990      0x190 build/kernel/components/finsh/cmd.o
                0x0000000080006990                list_sem
 .text.list_event
                0x0000000080006b20      0x184 build/kernel/components/finsh/cmd.o
                0x0000000080006b20                list_event
 .text.list_mutex
                0x0000000080006ca4      0x130 build/kernel/components/finsh/cmd.o
                0x0000000080006ca4                list_mutex
 .text.list_mailbox
                0x0000000080006dd4      0x198 build/kernel/components/finsh/cmd.o
                0x0000000080006dd4                list_mailbox
 .text.list_msgqueue
                0x0000000080006f6c      0x190 build/kernel/components/finsh/cmd.o
                0x0000000080006f6c                list_msgqueue
 .text.list_mempool
                0x00000000800070fc      0x188 build/kernel/components/finsh/cmd.o
                0x00000000800070fc                list_mempool
 .text.list_device
                0x0000000080007284      0x15c build/kernel/components/finsh/cmd.o
                0x0000000080007284                list_device
 .text.finsh_rx_ind
                0x00000000800073e0       0x50 build/kernel/components/finsh/shell.o
 .text.finsh_get_prompt
                0x0000000080007430       0xd4 build/kernel/components/finsh/shell.o
                0x0000000080007430                finsh_get_prompt
 .text.shell_handle_history.isra.0
                0x0000000080007504       0x40 build/kernel/components/finsh/shell.o
 .text.finsh_set_prompt_mode
                0x0000000080007544       0x6c build/kernel/components/finsh/shell.o
                0x0000000080007544                finsh_set_prompt_mode
 .text.finsh_system_init
                0x00000000800075b0       0xf0 build/kernel/components/finsh/shell.o
                0x00000000800075b0                finsh_system_init
 .text.finsh_set_device
                0x00000000800076a0      0x108 build/kernel/components/finsh/shell.o
                0x00000000800076a0                finsh_set_device
 .text.finsh_thread_entry
                0x00000000800077a8      0x5bc build/kernel/components/finsh/shell.o
                0x00000000800077a8                finsh_thread_entry
 .text.cmd_ls   0x0000000080007d64       0x34 build/kernel/components/finsh/msh_file.o
 .text.cmd_pwd  0x0000000080007d98       0x2c build/kernel/components/finsh/msh_file.o
 .text.directory_delete_for_msh
                0x0000000080007dc4      0x244 build/kernel/components/finsh/msh_file.o
 .text.cmd_rm   0x0000000080008008      0x1e8 build/kernel/components/finsh/msh_file.o
 .text.cmd_mkfs
                0x00000000800081f0       0x88 build/kernel/components/finsh/msh_file.o
 .text.cmd_mount
                0x0000000080008278      0x10c build/kernel/components/finsh/msh_file.o
 .text.cmd_umount
                0x0000000080008384       0x74 build/kernel/components/finsh/msh_file.o
 .text.cmd_tail
                0x00000000800083f8      0x1b8 build/kernel/components/finsh/msh_file.o
 .text.cmd_cp   0x00000000800085b0       0x4c build/kernel/components/finsh/msh_file.o
 .text.cmd_mv   0x00000000800085fc      0x13c build/kernel/components/finsh/msh_file.o
 .text.cmd_cat  0x0000000080008738       0x80 build/kernel/components/finsh/msh_file.o
 .text.cmd_cd   0x00000000800087b8       0x64 build/kernel/components/finsh/msh_file.o
 .text.cmd_mkdir
                0x000000008000881c       0x4c build/kernel/components/finsh/msh_file.o
 .text.cmd_df   0x0000000080008868       0x78 build/kernel/components/finsh/msh_file.o
 .text.cmd_echo
                0x00000000800088e0       0xb0 build/kernel/components/finsh/msh_file.o
 .text.msh_exec_script
                0x0000000080008990      0x234 build/kernel/components/finsh/msh_file.o
                0x0000000080008990                msh_exec_script
 .text.msh_help
                0x0000000080008bc4       0xb0 build/kernel/components/finsh/msh.o
                0x0000000080008bc4                msh_help
 .text.cmd_ps   0x0000000080008c74       0x1c build/kernel/components/finsh/msh.o
                0x0000000080008c74                cmd_ps
 .text.cmd_free
                0x0000000080008c90       0x1c build/kernel/components/finsh/msh.o
                0x0000000080008c90                cmd_free
 .text.msh_is_used
                0x0000000080008cac        0x8 build/kernel/components/finsh/msh.o
                0x0000000080008cac                msh_is_used
 .text.msh_exec
                0x0000000080008cb4      0x29c build/kernel/components/finsh/msh.o
                0x0000000080008cb4                msh_exec
 .text.msh_auto_complete_path
                0x0000000080008f50      0x274 build/kernel/components/finsh/msh.o
                0x0000000080008f50                msh_auto_complete_path
 .text.msh_auto_complete
                0x00000000800091c4      0x1a0 build/kernel/components/finsh/msh.o
                0x00000000800091c4                msh_auto_complete
 .text.dfs_register
                0x0000000080009364       0xd8 build/kernel/components/dfs/src/dfs_fs.o
                0x0000000080009364                dfs_register
 .text.dfs_filesystem_lookup
                0x000000008000943c      0x128 build/kernel/components/dfs/src/dfs_fs.o
                0x000000008000943c                dfs_filesystem_lookup
 .text.dfs_mount
                0x0000000080009564      0x280 build/kernel/components/dfs/src/dfs_fs.o
                0x0000000080009564                dfs_mount
 .text.dfs_unmount
                0x00000000800097e4       0xe4 build/kernel/components/dfs/src/dfs_fs.o
                0x00000000800097e4                dfs_unmount
 .text.dfs_mkfs
                0x00000000800098c8      0x15c build/kernel/components/dfs/src/dfs_fs.o
                0x00000000800098c8                dfs_mkfs
 .text.mkfs     0x0000000080009a24        0x4 build/kernel/components/dfs/src/dfs_fs.o
                0x0000000080009a24                mkfs
 .text.dfs_statfs
                0x0000000080009a28       0x40 build/kernel/components/dfs/src/dfs_fs.o
                0x0000000080009a28                dfs_statfs
 .text.df       0x0000000080009a68      0x110 build/kernel/components/dfs/src/dfs_fs.o
                0x0000000080009a68                df
 .text.mkdir    0x0000000080009b78       0xa0 build/kernel/components/dfs/src/dfs_posix.o
                0x0000000080009b78                mkdir
 .text.open     0x0000000080009c18       0xac build/kernel/components/dfs/src/dfs_posix.o
                0x0000000080009c18                open
 .text.close    0x0000000080009cc4       0x68 build/kernel/components/dfs/src/dfs_posix.o
                0x0000000080009cc4                close
 .text.read     0x0000000080009d2c       0x74 build/kernel/components/dfs/src/dfs_posix.o
                0x0000000080009d2c                read
 .text.write    0x0000000080009da0       0x74 build/kernel/components/dfs/src/dfs_posix.o
                0x0000000080009da0                write
 .text.lseek    0x0000000080009e14       0xb4 build/kernel/components/dfs/src/dfs_posix.o
                0x0000000080009e14                lseek
 .text.rename   0x0000000080009ec8       0x2c build/kernel/components/dfs/src/dfs_posix.o
                0x0000000080009ec8                rename
 .text.unlink   0x0000000080009ef4       0x2c build/kernel/components/dfs/src/dfs_posix.o
                0x0000000080009ef4                unlink
 .text.stat     0x0000000080009f20       0x2c build/kernel/components/dfs/src/dfs_posix.o
                0x0000000080009f20                stat
 .text.opendir  0x0000000080009f4c       0xc4 build/kernel/components/dfs/src/dfs_posix.o
                0x0000000080009f4c                opendir
 .text.readdir  0x000000008000a010       0xc8 build/kernel/components/dfs/src/dfs_posix.o
                0x000000008000a010                readdir
 .text.rewinddir
                0x000000008000a0d8       0x68 build/kernel/components/dfs/src/dfs_posix.o
                0x000000008000a0d8                rewinddir
 .text.closedir
                0x000000008000a140       0x7c build/kernel/components/dfs/src/dfs_posix.o
                0x000000008000a140                closedir
 .text.chdir    0x000000008000a1bc       0xb8 build/kernel/components/dfs/src/dfs_posix.o
                0x000000008000a1bc                chdir
 .text.getcwd   0x000000008000a274       0x44 build/kernel/components/dfs/src/dfs_posix.o
                0x000000008000a274                getcwd
 .text.list_fd  0x000000008000a2b8      0x1a0 build/kernel/components/dfs/src/dfs.o
                0x000000008000a2b8                list_fd
 .text.dfs_init
                0x000000008000a458       0xe8 build/kernel/components/dfs/src/dfs.o
                0x000000008000a458                dfs_init
 .text.dfs_lock
                0x000000008000a540       0x6c build/kernel/components/dfs/src/dfs.o
                0x000000008000a540                dfs_lock
 .text.dfs_unlock
                0x000000008000a5ac        0xc build/kernel/components/dfs/src/dfs.o
                0x000000008000a5ac                dfs_unlock
 .text.fd_new   0x000000008000a5b8      0x168 build/kernel/components/dfs/src/dfs.o
                0x000000008000a5b8                fd_new
 .text.fd_get   0x000000008000a720       0x90 build/kernel/components/dfs/src/dfs.o
                0x000000008000a720                fd_get
 .text.fd_put   0x000000008000a7b0       0xa8 build/kernel/components/dfs/src/dfs.o
                0x000000008000a7b0                fd_put
 .text.dfs_subdir
                0x000000008000a858       0x5c build/kernel/components/dfs/src/dfs.o
                0x000000008000a858                dfs_subdir
 .text.dfs_normalize_path
                0x000000008000a8b4      0x1e8 build/kernel/components/dfs/src/dfs.o
                0x000000008000a8b4                dfs_normalize_path
 .text.fd_is_open
                0x000000008000aa9c      0x118 build/kernel/components/dfs/src/dfs.o
                0x000000008000aa9c                fd_is_open
 .text.dfs_file_open
                0x000000008000abb4      0x15c build/kernel/components/dfs/src/dfs_file.o
                0x000000008000abb4                dfs_file_open
 .text.dfs_file_close
                0x000000008000ad10       0x60 build/kernel/components/dfs/src/dfs_file.o
                0x000000008000ad10                dfs_file_close
 .text.dfs_file_read
                0x000000008000ad70       0x60 build/kernel/components/dfs/src/dfs_file.o
                0x000000008000ad70                dfs_file_read
 .text.cat      0x000000008000add0       0xac build/kernel/components/dfs/src/dfs_file.o
                0x000000008000add0                cat
 .text.dfs_file_getdents
                0x000000008000ae7c       0x34 build/kernel/components/dfs/src/dfs_file.o
                0x000000008000ae7c                dfs_file_getdents
 .text.dfs_file_unlink
                0x000000008000aeb0       0xe4 build/kernel/components/dfs/src/dfs_file.o
                0x000000008000aeb0                dfs_file_unlink
 .text.rm       0x000000008000af94       0x38 build/kernel/components/dfs/src/dfs_file.o
                0x000000008000af94                rm
 .text.dfs_file_write
                0x000000008000afcc       0x24 build/kernel/components/dfs/src/dfs_file.o
                0x000000008000afcc                dfs_file_write
 .text.copyfile
                0x000000008000aff0      0x12c build/kernel/components/dfs/src/dfs_file.o
 .text.dfs_file_lseek
                0x000000008000b11c       0x54 build/kernel/components/dfs/src/dfs_file.o
                0x000000008000b11c                dfs_file_lseek
 .text.dfs_file_stat
                0x000000008000b170      0x164 build/kernel/components/dfs/src/dfs_file.o
                0x000000008000b170                dfs_file_stat
 .text.ls       0x000000008000b2d4      0x1ac build/kernel/components/dfs/src/dfs_file.o
                0x000000008000b2d4                ls
 .text.copydir  0x000000008000b480      0x1c0 build/kernel/components/dfs/src/dfs_file.o
 .text.copy     0x000000008000b640      0x18c build/kernel/components/dfs/src/dfs_file.o
                0x000000008000b640                copy
 .text.dfs_file_rename
                0x000000008000b7cc       0xfc build/kernel/components/dfs/src/dfs_file.o
                0x000000008000b7cc                dfs_file_rename
 .text.dfs_device_fs_mount
                0x000000008000b8c8        0x8 build/kernel/components/dfs/filesystems/devfs/devfs.o
                0x000000008000b8c8                dfs_device_fs_mount
 .text.dfs_device_fs_poll
                0x000000008000b8d0        0x8 build/kernel/components/dfs/filesystems/devfs/devfs.o
 .text.dfs_device_fs_ioctl
                0x000000008000b8d8       0x88 build/kernel/components/dfs/filesystems/devfs/devfs.o
                0x000000008000b8d8                dfs_device_fs_ioctl
 .text.dfs_device_fs_read
                0x000000008000b960       0xa0 build/kernel/components/dfs/filesystems/devfs/devfs.o
                0x000000008000b960                dfs_device_fs_read
 .text.dfs_device_fs_write
                0x000000008000ba00       0xa0 build/kernel/components/dfs/filesystems/devfs/devfs.o
                0x000000008000ba00                dfs_device_fs_write
 .text.dfs_device_fs_close
                0x000000008000baa0       0xb4 build/kernel/components/dfs/filesystems/devfs/devfs.o
                0x000000008000baa0                dfs_device_fs_close
 .text.dfs_device_fs_stat
                0x000000008000bb54       0xa4 build/kernel/components/dfs/filesystems/devfs/devfs.o
                0x000000008000bb54                dfs_device_fs_stat
 .text.dfs_device_fs_open
                0x000000008000bbf8      0x158 build/kernel/components/dfs/filesystems/devfs/devfs.o
                0x000000008000bbf8                dfs_device_fs_open
 .text.dfs_device_fs_getdents
                0x000000008000bd50      0x108 build/kernel/components/dfs/filesystems/devfs/devfs.o
                0x000000008000bd50                dfs_device_fs_getdents
 .text.devfs_init
                0x000000008000be58       0x24 build/kernel/components/dfs/filesystems/devfs/devfs.o
                0x000000008000be58                devfs_init
 .text.dfs_romfs_mount
                0x000000008000be7c       0x18 build/kernel/components/dfs/filesystems/romfs/dfs_romfs.o
                0x000000008000be7c                dfs_romfs_mount
 .text.dfs_romfs_unmount
                0x000000008000be94        0x8 build/kernel/components/dfs/filesystems/romfs/dfs_romfs.o
                0x000000008000be94                dfs_romfs_unmount
 .text.dfs_romfs_ioctl
                0x000000008000be9c        0x8 build/kernel/components/dfs/filesystems/romfs/dfs_romfs.o
                0x000000008000be9c                dfs_romfs_ioctl
 .text.check_dirent
                0x000000008000bea4       0x28 build/kernel/components/dfs/filesystems/romfs/dfs_romfs.o
 .text.dfs_romfs_lseek
                0x000000008000becc       0x1c build/kernel/components/dfs/filesystems/romfs/dfs_romfs.o
                0x000000008000becc                dfs_romfs_lseek
 .text.dfs_romfs_close
                0x000000008000bee8        0xc build/kernel/components/dfs/filesystems/romfs/dfs_romfs.o
                0x000000008000bee8                dfs_romfs_close
 .text.dfs_romfs_read
                0x000000008000bef4       0xb8 build/kernel/components/dfs/filesystems/romfs/dfs_romfs.o
                0x000000008000bef4                dfs_romfs_read
 .text.dfs_romfs_getdents
                0x000000008000bfac      0x148 build/kernel/components/dfs/filesystems/romfs/dfs_romfs.o
                0x000000008000bfac                dfs_romfs_getdents
 .text.dfs_romfs_init
                0x000000008000c0f4       0x24 build/kernel/components/dfs/filesystems/romfs/dfs_romfs.o
                0x000000008000c0f4                dfs_romfs_init
 .text.dfs_romfs_lookup
                0x000000008000c118      0x16c build/kernel/components/dfs/filesystems/romfs/dfs_romfs.o
                0x000000008000c118                dfs_romfs_lookup
 .text.dfs_romfs_open
                0x000000008000c284       0xac build/kernel/components/dfs/filesystems/romfs/dfs_romfs.o
                0x000000008000c284                dfs_romfs_open
 .text.dfs_romfs_stat
                0x000000008000c330       0x70 build/kernel/components/dfs/filesystems/romfs/dfs_romfs.o
                0x000000008000c330                dfs_romfs_stat
 .text.rt_serial_control
                0x000000008000c3a0      0x114 build/kernel/components/drivers/serial/serial.o
 .text._serial_fifo_calc_recved_len
                0x000000008000c4b4       0x98 build/kernel/components/drivers/serial/serial.o
 .text.rt_serial_init
                0x000000008000c54c       0x6c build/kernel/components/drivers/serial/serial.o
 .text.rt_serial_open
                0x000000008000c5b8      0x36c build/kernel/components/drivers/serial/serial.o
 .text.rt_serial_write
                0x000000008000c924      0x1e4 build/kernel/components/drivers/serial/serial.o
 .text.rt_serial_read
                0x000000008000cb08      0x37c build/kernel/components/drivers/serial/serial.o
 .text.rt_serial_close
                0x000000008000ce84      0x1f0 build/kernel/components/drivers/serial/serial.o
 .text._serial_check_buffer_size
                0x000000008000d074       0x58 build/kernel/components/drivers/serial/serial.o
 .text.rt_hw_serial_register
                0x000000008000d0cc       0xc8 build/kernel/components/drivers/serial/serial.o
                0x000000008000d0cc                rt_hw_serial_register
 .text.rt_hw_serial_isr
                0x000000008000d194      0x37c build/kernel/components/drivers/serial/serial.o
                0x000000008000d194                rt_hw_serial_isr
 .text.rt_completion_init
                0x000000008000d510       0x50 build/kernel/components/drivers/src/completion.o
                0x000000008000d510                rt_completion_init
 .text.rt_completion_wait
                0x000000008000d560      0x168 build/kernel/components/drivers/src/completion.o
                0x000000008000d560                rt_completion_wait
 .text.rt_completion_done
                0x000000008000d6c8       0xb0 build/kernel/components/drivers/src/completion.o
                0x000000008000d6c8                rt_completion_done
 .text.rt_data_queue_init
                0x000000008000d778       0xd0 build/kernel/components/drivers/src/dataqueue.o
                0x000000008000d778                rt_data_queue_init
 .text.rt_data_queue_push
                0x000000008000d848      0x28c build/kernel/components/drivers/src/dataqueue.o
                0x000000008000d848                rt_data_queue_push
 .text.rt_data_queue_peek
                0x000000008000dad4       0xec build/kernel/components/drivers/src/dataqueue.o
                0x000000008000dad4                rt_data_queue_peek
 .text.rt_data_queue_reset
                0x000000008000dbc0       0xfc build/kernel/components/drivers/src/dataqueue.o
                0x000000008000dbc0                rt_data_queue_reset
 .text.rt_data_queue_deinit
                0x000000008000dcbc       0x84 build/kernel/components/drivers/src/dataqueue.o
                0x000000008000dcbc                rt_data_queue_deinit
 .text.rt_data_queue_len
                0x000000008000dd40       0xd4 build/kernel/components/drivers/src/dataqueue.o
                0x000000008000dd40                rt_data_queue_len
 .text.rt_data_queue_pop
                0x000000008000de14      0x324 build/kernel/components/drivers/src/dataqueue.o
                0x000000008000de14                rt_data_queue_pop
 .text.rt_pin_mode
                0x000000008000e138       0x74 build/kernel/components/drivers/misc/pin.o
                0x000000008000e138                rt_pin_mode
 .text.rt_pin_write
                0x000000008000e1ac       0x74 build/kernel/components/drivers/misc/pin.o
                0x000000008000e1ac                rt_pin_write
 .text.rt_pin_read
                0x000000008000e220       0x64 build/kernel/components/drivers/misc/pin.o
                0x000000008000e220                rt_pin_read
 .text.rt_pin_get
                0x000000008000e284       0x9c build/kernel/components/drivers/misc/pin.o
                0x000000008000e284                rt_pin_get
 *(.rodata)
 *(.rodata*)
 *fill*         0x000000008000e320        0x0 
 .rodata.thread_sample.str1.8
                0x000000008000e320       0x29 build/applications/main.o
 *fill*         0x000000008000e349        0x7 
 .rodata.main.str1.8
                0x000000008000e350        0xf build/applications/main.o
 *fill*         0x000000008000e35f        0x1 
 .rodata.Motor_MotorGroupsPID_Clac.str1.8
                0x000000008000e360       0x3b build/applications/motor_periph.o
 *fill*         0x000000008000e39b        0x5 
 .rodata.Motor_Chassis_Decoder.str1.8
                0x000000008000e3a0        0x7 build/applications/motor_periph.o
 *fill*         0x000000008000e3a7        0x1 
 .rodata.chassis_motor_rx
                0x000000008000e3a8       0x10 build/applications/motor_periph.o
 .rodata.chassis_motor_tx
                0x000000008000e3b8       0x10 build/applications/motor_periph.o
 .rodata.plic_claim.str1.8
                0x000000008000e3c8        0xa build/driver/plic.o
 *fill*         0x000000008000e3d2        0x6 
 .rodata.rt_uart_configure.str1.8
                0x000000008000e3d8       0x12 build/driver/drv_uart.o
 *fill*         0x000000008000e3ea        0x6 
 .rodata.uart_control.str1.8
                0x000000008000e3f0       0x10 build/driver/drv_uart.o
 .rodata.rt_hw_uart_init.str1.8
                0x000000008000e400        0x5 build/driver/drv_uart.o
 *fill*         0x000000008000e405        0x3 
 .rodata.__FUNCTION__.0
                0x000000008000e408       0x12 build/driver/drv_uart.o
 *fill*         0x000000008000e41a        0x6 
 .rodata.__FUNCTION__.1
                0x000000008000e420        0xd build/driver/drv_uart.o
 *fill*         0x000000008000e42d        0x3 
 .rodata._uart_ops
                0x000000008000e430       0x28 build/driver/drv_uart.o
                0x000000008000e430                _uart_ops
 .rodata.rt_hw_board_init.str1.8
                0x000000008000e458       0x19 build/driver/board.o
                                         0x21 (size before relaxing)
 *fill*         0x000000008000e471        0x7 
 .rodata.name   0x000000008000e478       0x1d build/driver/board.o
                0x000000008000e478                __fsym___cmd_reboot_desc
                0x000000008000e488                __fsym___cmd_reboot_name
 *fill*         0x000000008000e495        0x3 
 .rodata.rt_device_unregister.str1.8
                0x000000008000e498       0x78 build/kernel/src/device.o
 .rodata.rt_device_init.str1.8
                0x000000008000e510       0x36 build/kernel/src/device.o
 *fill*         0x000000008000e546        0x2 
 .rodata.rt_device_open.str1.8
                0x000000008000e548       0x14 build/kernel/src/device.o
 *fill*         0x000000008000e55c        0x4 
 .rodata.__FUNCTION__.1
                0x000000008000e560       0x1a build/kernel/src/device.o
 *fill*         0x000000008000e57a        0x6 
 .rodata.__FUNCTION__.2
                0x000000008000e580       0x12 build/kernel/src/device.o
 *fill*         0x000000008000e592        0x6 
 .rodata.__FUNCTION__.3
                0x000000008000e598       0x10 build/kernel/src/device.o
 .rodata.__FUNCTION__.4
                0x000000008000e5a8        0xf build/kernel/src/device.o
 *fill*         0x000000008000e5b7        0x1 
 .rodata.__FUNCTION__.5
                0x000000008000e5b8       0x10 build/kernel/src/device.o
 .rodata.__FUNCTION__.6
                0x000000008000e5c8        0xf build/kernel/src/device.o
 *fill*         0x000000008000e5d7        0x1 
 .rodata.list_mem.str1.8
                0x000000008000e5d8       0x4e build/kernel/src/mem.o
 *fill*         0x000000008000e626        0x2 
 .rodata.memtrace.str1.8
                0x000000008000e628       0xbf build/kernel/src/mem.o
                                         0xc2 (size before relaxing)
 *fill*         0x000000008000e6e7        0x1 
 .rodata.plug_holes.str1.8
                0x000000008000e6e8       0x5f build/kernel/src/mem.o
 *fill*         0x000000008000e747        0x1 
 .rodata.memcheck.str1.8
                0x000000008000e748       0x64 build/kernel/src/mem.o
 *fill*         0x000000008000e7ac        0x4 
 .rodata.rt_system_heap_init.str1.8
                0x000000008000e7b0       0x7a build/kernel/src/mem.o
 *fill*         0x000000008000e82a        0x6 
 .rodata.rt_malloc.str1.8
                0x000000008000e830       0xf3 build/kernel/src/mem.o
 *fill*         0x000000008000e923        0x5 
 .rodata.rt_free.str1.8
                0x000000008000e928      0x109 build/kernel/src/mem.o
 *fill*         0x000000008000ea31        0x7 
 .rodata.__FUNCTION__.1
                0x000000008000ea38        0xb build/kernel/src/mem.o
 *fill*         0x000000008000ea43        0x5 
 .rodata.__FUNCTION__.2
                0x000000008000ea48        0xb build/kernel/src/mem.o
 *fill*         0x000000008000ea53        0x5 
 .rodata.__FUNCTION__.3
                0x000000008000ea58        0xa build/kernel/src/mem.o
 *fill*         0x000000008000ea62        0x6 
 .rodata.__FUNCTION__.4
                0x000000008000ea68       0x14 build/kernel/src/mem.o
 *fill*         0x000000008000ea7c        0x4 
 .rodata.name   0x000000008000ea80       0x81 build/kernel/src/mem.o
                0x000000008000ea80                __fsym___cmd_memtrace_desc
                0x000000008000eaa0                __fsym___cmd_memtrace_name
                0x000000008000eab0                __fsym___cmd_memcheck_desc
                0x000000008000eac8                __fsym___cmd_memcheck_name
                0x000000008000ead8                __fsym_list_mem_desc
                0x000000008000eaf8                __fsym_list_mem_name
 *fill*         0x000000008000eb01        0x7 
 .rodata._rt_thread_init.constprop.0.str1.8
                0x000000008000eb08       0x22 build/kernel/src/thread.o
 *fill*         0x000000008000eb2a        0x6 
 .rodata.rt_thread_timeout.str1.8
                0x000000008000eb30       0x9a build/kernel/src/thread.o
 *fill*         0x000000008000ebca        0x6 
 .rodata.rt_thread_init.str1.8
                0x000000008000ebd0       0x17 build/kernel/src/thread.o
 *fill*         0x000000008000ebe7        0x1 
 .rodata.rt_thread_detach.str1.8
                0x000000008000ebe8       0x2f build/kernel/src/thread.o
 *fill*         0x000000008000ec17        0x1 
 .rodata.rt_thread_create.str1.8
                0x000000008000ec18        0x6 build/kernel/src/thread.o
 *fill*         0x000000008000ec1e        0x2 
 .rodata.rt_thread_delete.str1.8
                0x000000008000ec20       0x3b build/kernel/src/thread.o
 *fill*         0x000000008000ec5b        0x5 
 .rodata.rt_thread_suspend.str1.8
                0x000000008000ec60       0x1b build/kernel/src/thread.o
 *fill*         0x000000008000ec7b        0x5 
 .rodata.rt_thread_startup.str1.8
                0x000000008000ec80       0x37 build/kernel/src/thread.o
 *fill*         0x000000008000ecb7        0x1 
 .rodata.__FUNCTION__.0
                0x000000008000ecb8       0x12 build/kernel/src/thread.o
 *fill*         0x000000008000ecca        0x6 
 .rodata.__FUNCTION__.1
                0x000000008000ecd0       0x11 build/kernel/src/thread.o
 *fill*         0x000000008000ece1        0x7 
 .rodata.__FUNCTION__.10
                0x000000008000ece8        0xf build/kernel/src/thread.o
 *fill*         0x000000008000ecf7        0x1 
 .rodata.__FUNCTION__.2
                0x000000008000ecf8       0x12 build/kernel/src/thread.o
 *fill*         0x000000008000ed0a        0x6 
 .rodata.__FUNCTION__.3
                0x000000008000ed10       0x12 build/kernel/src/thread.o
 *fill*         0x000000008000ed22        0x6 
 .rodata.__FUNCTION__.5
                0x000000008000ed28       0x10 build/kernel/src/thread.o
 .rodata.__FUNCTION__.6
                0x000000008000ed38       0x11 build/kernel/src/thread.o
 *fill*         0x000000008000ed49        0x7 
 .rodata.__FUNCTION__.7
                0x000000008000ed50       0x11 build/kernel/src/thread.o
 *fill*         0x000000008000ed61        0x7 
 .rodata.__FUNCTION__.8
                0x000000008000ed68       0x12 build/kernel/src/thread.o
 *fill*         0x000000008000ed7a        0x6 
 .rodata.__FUNCTION__.9
                0x000000008000ed80       0x10 build/kernel/src/thread.o
 .rodata.rt_vsnprintf.str1.8
                0x000000008000ed90        0x7 build/kernel/src/kservice.o
 *fill*         0x000000008000ed97        0x1 
 .rodata.rt_vsnprintf
                0x000000008000ed98       0x58 build/kernel/src/kservice.o
 .rodata.rt_show_version.str1.8
                0x000000008000edf0       0x92 build/kernel/src/kservice.o
 *fill*         0x000000008000ee82        0x6 
 .rodata.rt_assert_handler.str1.8
                0x000000008000ee88       0x37 build/kernel/src/kservice.o
 *fill*         0x000000008000eebf        0x1 
 .rodata.__lowest_bit_bitmap
                0x000000008000eec0      0x100 build/kernel/src/kservice.o
                0x000000008000eec0                __lowest_bit_bitmap
 .rodata.large_digits.2
                0x000000008000efc0       0x11 build/kernel/src/kservice.o
 *fill*         0x000000008000efd1        0x7 
 .rodata.small_digits.1
                0x000000008000efd8       0x11 build/kernel/src/kservice.o
 *fill*         0x000000008000efe9        0x7 
 .rodata.rt_object_init.str1.8
                0x000000008000eff0       0x26 build/kernel/src/object.o
 *fill*         0x000000008000f016        0x2 
 .rodata.rt_object_detach.str1.8
                0x000000008000f018       0x12 build/kernel/src/object.o
 *fill*         0x000000008000f02a        0x6 
 .rodata.rt_object_allocate.str1.8
                0x000000008000f030        0xb build/kernel/src/object.o
                                         0x3b (size before relaxing)
 *fill*         0x000000008000f03b        0x5 
 .rodata.rt_object_delete.str1.8
                0x000000008000f040       0x29 build/kernel/src/object.o
 *fill*         0x000000008000f069        0x7 
 .rodata.__FUNCTION__.0
                0x000000008000f070        0xf build/kernel/src/object.o
 *fill*         0x000000008000f07f        0x1 
 .rodata.__FUNCTION__.1
                0x000000008000f080       0x13 build/kernel/src/object.o
 *fill*         0x000000008000f093        0x5 
 .rodata.__FUNCTION__.2
                0x000000008000f098       0x1a build/kernel/src/object.o
 *fill*         0x000000008000f0b2        0x6 
 .rodata.__FUNCTION__.3
                0x000000008000f0b8       0x11 build/kernel/src/object.o
 *fill*         0x000000008000f0c9        0x7 
 .rodata.__FUNCTION__.4
                0x000000008000f0d0       0x13 build/kernel/src/object.o
 *fill*         0x000000008000f0e3        0x5 
 .rodata.__FUNCTION__.5
                0x000000008000f0e8       0x11 build/kernel/src/object.o
 *fill*         0x000000008000f0f9        0x7 
 .rodata.__FUNCTION__.6
                0x000000008000f100        0xf build/kernel/src/object.o
 *fill*         0x000000008000f10f        0x1 
 .rodata.rt_application_init.str1.8
                0x000000008000f110       0x27 build/kernel/src/components.o
 *fill*         0x000000008000f137        0x1 
 .rodata.__FUNCTION__.0
                0x000000008000f138       0x14 build/kernel/src/components.o
 .rodata.rt_schedule_insert_thread.str1.8
                0x000000008000f14c       0x12 build/kernel/src/scheduler.o
 *fill*         0x000000008000f14c        0x4 
 .rodata.__FUNCTION__.0
                0x000000008000f150       0x1a build/kernel/src/scheduler.o
 *fill*         0x000000008000f16a        0x6 
 .rodata.__FUNCTION__.1
                0x000000008000f170       0x1a build/kernel/src/scheduler.o
 *fill*         0x000000008000f18a        0x6 
 .rodata.rt_timer_init.str1.8
                0x000000008000f190       0x11 build/kernel/src/timer.o
 *fill*         0x000000008000f1a1        0x7 
 .rodata.rt_timer_detach.str1.8
                0x000000008000f1a8       0x6a build/kernel/src/timer.o
 *fill*         0x000000008000f212        0x6 
 .rodata.rt_timer_start.str1.8
                0x000000008000f218       0x23 build/kernel/src/timer.o
 *fill*         0x000000008000f23b        0x1 
 .rodata.rt_timer_control
                0x000000008000f23c       0x14 build/kernel/src/timer.o
 .rodata.rt_system_timer_thread_init.str1.8
                0x000000008000f250        0x6 build/kernel/src/timer.o
 *fill*         0x000000008000f256        0x2 
 .rodata.__FUNCTION__.0
                0x000000008000f258       0x11 build/kernel/src/timer.o
 *fill*         0x000000008000f269        0x7 
 .rodata.__FUNCTION__.1
                0x000000008000f270        0xe build/kernel/src/timer.o
 *fill*         0x000000008000f27e        0x2 
 .rodata.__FUNCTION__.3
                0x000000008000f280        0xf build/kernel/src/timer.o
 *fill*         0x000000008000f28f        0x1 
 .rodata.__FUNCTION__.5
                0x000000008000f290       0x10 build/kernel/src/timer.o
 .rodata.__FUNCTION__.6
                0x000000008000f2a0        0xe build/kernel/src/timer.o
 .rodata.rt_ipc_list_suspend.isra.0.str1.8
                0x000000008000f2ae        0x2 build/kernel/src/ipc.o
 *fill*         0x000000008000f2ae        0x2 
 .rodata.rt_sem_init.str1.8
                0x000000008000f2b0       0x21 build/kernel/src/ipc.o
 *fill*         0x000000008000f2d1        0x7 
 .rodata.rt_sem_detach.str1.8
                0x000000008000f2d8       0x77 build/kernel/src/ipc.o
 .rodata.rt_sem_create.str1.8
                0x000000008000f34f       0x27 build/kernel/src/ipc.o
 *fill*         0x000000008000f34f        0x1 
 .rodata.rt_sem_take.str1.8
                0x000000008000f350       0x37 build/kernel/src/ipc.o
 *fill*         0x000000008000f387        0x1 
 .rodata.rt_mutex_init.str1.8
                0x000000008000f388       0x11 build/kernel/src/ipc.o
 *fill*         0x000000008000f399        0x7 
 .rodata.rt_mutex_detach.str1.8
                0x000000008000f3a0       0x79 build/kernel/src/ipc.o
 *fill*         0x000000008000f419        0x7 
 .rodata.__FUNCTION__.24
                0x000000008000f420       0x11 build/kernel/src/ipc.o
 *fill*         0x000000008000f431        0x7 
 .rodata.__FUNCTION__.25
                0x000000008000f438        0xe build/kernel/src/ipc.o
 *fill*         0x000000008000f446        0x2 
 .rodata.__FUNCTION__.29
                0x000000008000f448        0xe build/kernel/src/ipc.o
 *fill*         0x000000008000f456        0x2 
 .rodata.__FUNCTION__.31
                0x000000008000f458        0xf build/kernel/src/ipc.o
 *fill*         0x000000008000f467        0x1 
 .rodata.__FUNCTION__.32
                0x000000008000f468       0x14 build/kernel/src/ipc.o
 *fill*         0x000000008000f47c        0x4 
 .rodata.__FUNCTION__.33
                0x000000008000f480        0xc build/kernel/src/ipc.o
 *fill*         0x000000008000f48c        0x4 
 .rodata.__FUNCTION__.37
                0x000000008000f490        0xc build/kernel/src/ipc.o
 .rodata.rt_thread_idle_entry.str1.8
                0x000000008000f49c       0x2a build/kernel/src/idle.o
 *fill*         0x000000008000f49c        0x4 
 .rodata.rt_thread_idle_init.str1.8
                0x000000008000f4a0        0x8 build/kernel/src/idle.o
 .rodata.__FUNCTION__.0
                0x000000008000f4a8       0x13 build/kernel/src/idle.o
 *fill*         0x000000008000f4bb        0x5 
 .rodata.rt_hw_interrupt_handle.str1.8
                0x000000008000f4c0       0x25 /home/ddddddd/my_learn/cpu_relative/prog/src/rtthread/libcpu/risc-v/virt64/interrupt.o
 *fill*         0x000000008000f4e5        0x3 
 .rodata.dump_regs.str1.8
                0x000000008000f4e8      0x497 /home/ddddddd/my_learn/cpu_relative/prog/src/rtthread/libcpu/risc-v/virt64/interrupt.o
 *fill*         0x000000008000f97f        0x1 
 .rodata.handle_trap.str1.8
                0x000000008000f980      0x1fe /home/ddddddd/my_learn/cpu_relative/prog/src/rtthread/libcpu/risc-v/virt64/interrupt.o
                                        0x206 (size before relaxing)
 *fill*         0x000000008000fb7e        0x2 
 .rodata.handle_trap
                0x000000008000fb80       0x54 /home/ddddddd/my_learn/cpu_relative/prog/src/rtthread/libcpu/risc-v/virt64/interrupt.o
 *fill*         0x000000008000fbd4        0x4 
 .rodata.str1.8
                0x000000008000fbd8       0x82 /home/ddddddd/my_learn/cpu_relative/prog/src/rtthread/libcpu/risc-v/virt64/interrupt.o
 *fill*         0x000000008000fc5a        0x6 
 .rodata.CSWTCH.17
                0x000000008000fc60       0x50 /home/ddddddd/my_learn/cpu_relative/prog/src/rtthread/libcpu/risc-v/virt64/interrupt.o
 .rodata.hello.str1.8
                0x000000008000fcb0       0x12 build/kernel/components/finsh/cmd.o
 *fill*         0x000000008000fcc2        0x6 
 .rodata.clear.str1.8
                0x000000008000fcc8        0x8 build/kernel/components/finsh/cmd.o
 .rodata.show_wait_queue.str1.8
                0x000000008000fcd0        0xa build/kernel/components/finsh/cmd.o
 *fill*         0x000000008000fcda        0x6 
 .rodata.list.str1.8
                0x000000008000fce0       0x2d build/kernel/components/finsh/cmd.o
 *fill*         0x000000008000fd0d        0x3 
 .rodata.object_split.constprop.0.str1.8
                0x000000008000fd10        0x2 build/kernel/components/finsh/cmd.o
 *fill*         0x000000008000fd12        0x6 
 .rodata.list_timer.str1.8
                0x000000008000fd18       0x9d build/kernel/components/finsh/cmd.o
                                         0xa5 (size before relaxing)
 *fill*         0x000000008000fdb5        0x3 
 .rodata.list_thread.str1.8
                0x000000008000fdb8      0x118 build/kernel/components/finsh/cmd.o
 .rodata.list_sem.str1.8
                0x000000008000fed0       0x68 build/kernel/components/finsh/cmd.o
                                         0x70 (size before relaxing)
 .rodata.list_event.str1.8
                0x000000008000ff38       0x7a build/kernel/components/finsh/cmd.o
 *fill*         0x000000008000ffb2        0x6 
 .rodata.list_mutex.str1.8
                0x000000008000ffb8       0x67 build/kernel/components/finsh/cmd.o
 *fill*         0x000000008001001f        0x1 
 .rodata.list_mailbox.str1.8
                0x0000000080010020       0x7e build/kernel/components/finsh/cmd.o
 *fill*         0x000000008001009e        0x2 
 .rodata.list_msgqueue.str1.8
                0x00000000800100a0       0x71 build/kernel/components/finsh/cmd.o
 *fill*         0x0000000080010111        0x7 
 .rodata.list_mempool.str1.8
                0x0000000080010118       0x94 build/kernel/components/finsh/cmd.o
 *fill*         0x00000000800101ac        0x4 
 .rodata.list_device.str1.8
                0x00000000800101b0       0x73 build/kernel/components/finsh/cmd.o
 *fill*         0x0000000080010223        0x5 
 .rodata.str1.8
                0x0000000080010228      0x163 build/kernel/components/finsh/cmd.o
 *fill*         0x000000008001038b        0x5 
 .rodata.device_type_str
                0x0000000080010390       0xb8 build/kernel/components/finsh/cmd.o
 .rodata.name   0x0000000080010448      0x42e build/kernel/components/finsh/cmd.o
                0x0000000080010448                __fsym_list_desc
                0x0000000080010468                __fsym_list_name
                0x0000000080010470                __fsym___cmd_list_device_desc
                0x0000000080010488                __fsym___cmd_list_device_name
                0x00000000800104a0                __fsym_list_device_desc
                0x00000000800104b8                __fsym_list_device_name
                0x00000000800104c8                __fsym___cmd_list_timer_desc
                0x00000000800104e0                __fsym___cmd_list_timer_name
                0x00000000800104f8                __fsym_list_timer_desc
                0x0000000080010510                __fsym_list_timer_name
                0x0000000080010520                __fsym___cmd_list_mempool_desc
                0x0000000080010540                __fsym___cmd_list_mempool_name
                0x0000000080010558                __fsym_list_mempool_desc
                0x0000000080010578                __fsym_list_mempool_name
                0x0000000080010588                __fsym___cmd_list_msgqueue_desc
                0x00000000800105a8                __fsym___cmd_list_msgqueue_name
                0x00000000800105c0                __fsym_list_msgqueue_desc
                0x00000000800105e0                __fsym_list_msgqueue_name
                0x00000000800105f0                __fsym___cmd_list_mailbox_desc
                0x0000000080010608                __fsym___cmd_list_mailbox_name
                0x0000000080010620                __fsym_list_mailbox_desc
                0x0000000080010638                __fsym_list_mailbox_name
                0x0000000080010648                __fsym___cmd_list_mutex_desc
                0x0000000080010660                __fsym___cmd_list_mutex_name
                0x0000000080010678                __fsym_list_mutex_desc
                0x0000000080010690                __fsym_list_mutex_name
                0x00000000800106a0                __fsym___cmd_list_event_desc
                0x00000000800106b8                __fsym___cmd_list_event_name
                0x00000000800106d0                __fsym_list_event_desc
                0x00000000800106e8                __fsym_list_event_name
                0x00000000800106f8                __fsym___cmd_list_sem_desc
                0x0000000080010718                __fsym___cmd_list_sem_name
                0x0000000080010728                __fsym_list_sem_desc
                0x0000000080010748                __fsym_list_sem_name
                0x0000000080010758                __fsym___cmd_list_thread_desc
                0x0000000080010768                __fsym___cmd_list_thread_name
                0x0000000080010780                __fsym_list_thread_desc
                0x0000000080010790                __fsym_list_thread_name
                0x00000000800107a0                __fsym___cmd_version_desc
                0x00000000800107c8                __fsym___cmd_version_name
                0x00000000800107d8                __fsym_version_desc
                0x0000000080010800                __fsym_version_name
                0x0000000080010808                __fsym___cmd_clear_desc
                0x0000000080010828                __fsym___cmd_clear_name
                0x0000000080010838                __fsym_clear_desc
                0x0000000080010858                __fsym_clear_name
                0x0000000080010860                __fsym_hello_desc
                0x0000000080010870                __fsym_hello_name
 *fill*         0x0000000080010876        0x2 
 .rodata.finsh_rx_ind.str1.8
                0x0000000080010878       0x11 build/kernel/components/finsh/shell.o
 *fill*         0x0000000080010889        0x7 
 .rodata.finsh_get_prompt.str1.8
                0x0000000080010890       0x12 build/kernel/components/finsh/shell.o
 *fill*         0x00000000800108a2        0x6 
 .rodata.shell_handle_history.isra.0.str1.8
                0x00000000800108a8        0xd build/kernel/components/finsh/shell.o
 *fill*         0x00000000800108b5        0x3 
 .rodata.finsh_system_init.str1.8
                0x00000000800108b8       0x25 build/kernel/components/finsh/shell.o
 *fill*         0x00000000800108dd        0x3 
 .rodata.finsh_set_device.str1.8
                0x00000000800108e0       0x20 build/kernel/components/finsh/shell.o
 .rodata.finsh_thread_entry.str1.8
                0x0000000080010900       0x14 build/kernel/components/finsh/shell.o
                                         0x2b (size before relaxing)
 *fill*         0x0000000080010914        0x4 
 .rodata.__FUNCTION__.0
                0x0000000080010918        0xe build/kernel/components/finsh/shell.o
 *fill*         0x0000000080010926        0x2 
 .rodata.__FUNCTION__.4
                0x0000000080010928        0xd build/kernel/components/finsh/shell.o
 *fill*         0x0000000080010935        0x3 
 .rodata.__FUNCTION__.5
                0x0000000080010938       0x11 build/kernel/components/finsh/shell.o
 *fill*         0x0000000080010949        0x7 
 .rodata.__FUNCTION__.6
                0x0000000080010950       0x16 build/kernel/components/finsh/shell.o
 .rodata.cmd_pwd.str1.8
                0x0000000080010966       0x14 build/kernel/components/finsh/msh_file.o
                                          0x4 (size before relaxing)
 *fill*         0x0000000080010966        0x2 
 .rodata.directory_delete_for_msh.str1.8
                0x0000000080010968       0x50 build/kernel/components/finsh/msh_file.o
                                         0x58 (size before relaxing)
 .rodata.cmd_rm.str1.8
                0x00000000800109b8       0xaf build/kernel/components/finsh/msh_file.o
 *fill*         0x0000000080010a67        0x1 
 .rodata.cmd_mkfs.str1.8
                0x0000000080010a68       0x48 build/kernel/components/finsh/msh_file.o
 .rodata.cmd_mount.str1.8
                0x0000000080010ab0       0xce build/kernel/components/finsh/msh_file.o
 *fill*         0x0000000080010b7e        0x2 
 .rodata.cmd_umount.str1.8
                0x0000000080010b80       0x30 build/kernel/components/finsh/msh_file.o
 .rodata.cmd_tail.str1.8
                0x0000000080010bb0       0xc5 build/kernel/components/finsh/msh_file.o
                                         0xd2 (size before relaxing)
 *fill*         0x0000000080010c75        0x3 
 .rodata.cmd_cp.str1.8
                0x0000000080010c78       0x2e build/kernel/components/finsh/msh_file.o
 *fill*         0x0000000080010ca6        0x2 
 .rodata.cmd_mv.str1.8
                0x0000000080010ca8       0x6f build/kernel/components/finsh/msh_file.o
 *fill*         0x0000000080010d17        0x1 
 .rodata.cmd_cat.str1.8
                0x0000000080010d18       0x2d build/kernel/components/finsh/msh_file.o
 *fill*         0x0000000080010d45        0x3 
 .rodata.cmd_cd.str1.8
                0x0000000080010d48       0x17 build/kernel/components/finsh/msh_file.o
 *fill*         0x0000000080010d5f        0x1 
 .rodata.cmd_mkdir.str1.8
                0x0000000080010d60       0x5d build/kernel/components/finsh/msh_file.o
 *fill*         0x0000000080010dbd        0x3 
 .rodata.cmd_df.str1.8
                0x0000000080010dc0       0x1b build/kernel/components/finsh/msh_file.o
                                         0x23 (size before relaxing)
 *fill*         0x0000000080010ddb        0x5 
 .rodata.cmd_echo.str1.8
                0x0000000080010de0       0x39 build/kernel/components/finsh/msh_file.o
 *fill*         0x0000000080010e19        0x7 
 .rodata.msh_exec_script.str1.8
                0x0000000080010e20       0x1a build/kernel/components/finsh/msh_file.o
 *fill*         0x0000000080010e3a        0x6 
 .rodata.name   0x0000000080010e40      0x2a1 build/kernel/components/finsh/msh_file.o
                0x0000000080010e40                __fsym___cmd_tail_desc
                0x0000000080010e70                __fsym___cmd_tail_name
                0x0000000080010e80                __fsym___cmd_echo_desc
                0x0000000080010e98                __fsym___cmd_echo_name
                0x0000000080010ea8                __fsym___cmd_df_desc
                0x0000000080010eb8                __fsym___cmd_df_name
                0x0000000080010ec8                __fsym___cmd_umount_desc
                0x0000000080010ee8                __fsym___cmd_umount_name
                0x0000000080010ef8                __fsym___cmd_mount_desc
                0x0000000080010f20                __fsym___cmd_mount_name
                0x0000000080010f30                __fsym___cmd_mkfs_desc
                0x0000000080010f50                __fsym___cmd_mkfs_name
                0x0000000080010f60                __fsym___cmd_mkdir_desc
                0x0000000080010f78                __fsym___cmd_mkdir_name
                0x0000000080010f88                __fsym___cmd_pwd_desc
                0x0000000080010fc0                __fsym___cmd_pwd_name
                0x0000000080010fd0                __fsym___cmd_cd_desc
                0x0000000080010ff8                __fsym___cmd_cd_name
                0x0000000080011008                __fsym___cmd_rm_desc
                0x0000000080011028                __fsym___cmd_rm_name
                0x0000000080011038                __fsym___cmd_cat_desc
                0x0000000080011050                __fsym___cmd_cat_name
                0x0000000080011060                __fsym___cmd_mv_desc
                0x0000000080011078                __fsym___cmd_mv_name
                0x0000000080011088                __fsym___cmd_cp_desc
                0x00000000800110a0                __fsym___cmd_cp_name
                0x00000000800110b0                __fsym___cmd_ls_desc
                0x00000000800110d8                __fsym___cmd_ls_name
 *fill*         0x00000000800110e1        0x7 
 .rodata.msh_help.str1.8
                0x00000000800110e8       0x34 build/kernel/components/finsh/msh.o
                                         0x3a (size before relaxing)
 *fill*         0x000000008001111c        0x4 
 .rodata.msh_exec.str1.8
                0x0000000080011120       0x40 build/kernel/components/finsh/msh.o
 .rodata.msh_auto_complete_path.str1.8
                0x0000000080011160        0xc build/kernel/components/finsh/msh.o
 .rodata.name   0x0000000080011160       0x8b build/kernel/components/finsh/msh.o
                0x0000000080011160                __fsym___cmd_free_desc
                0x0000000080011188                __fsym___cmd_free_name
                0x0000000080011198                __fsym___cmd_ps_desc
                0x00000000800111b8                __fsym___cmd_ps_name
                0x00000000800111c8                __fsym___cmd_help_desc
                0x00000000800111e0                __fsym___cmd_help_name
 *fill*         0x00000000800111eb        0x5 
 .rodata.dfs_register.str1.8
                0x00000000800111f0       0x45 build/kernel/components/dfs/src/dfs_fs.o
                                         0x4a (size before relaxing)
 *fill*         0x0000000080011235        0x3 
 .rodata.dfs_filesystem_lookup.str1.8
                0x0000000080011238        0x5 build/kernel/components/dfs/src/dfs_fs.o
 *fill*         0x000000008001123d        0x3 
 .rodata.dfs_mount.str1.8
                0x0000000080011240       0x3a build/kernel/components/dfs/src/dfs_fs.o
                                         0x42 (size before relaxing)
 *fill*         0x000000008001127a        0x6 
 .rodata.dfs_mkfs.str1.8
                0x0000000080011280       0x75 build/kernel/components/dfs/src/dfs_fs.o
 *fill*         0x00000000800112f5        0x3 
 .rodata.df.str1.8
                0x00000000800112f8       0x66 build/kernel/components/dfs/src/dfs_fs.o
 *fill*         0x000000008001135e        0x2 
 .rodata.__FUNCTION__.1
                0x0000000080011360       0x16 build/kernel/components/dfs/src/dfs_fs.o
 *fill*         0x0000000080011376        0x2 
 .rodata.name   0x0000000080011378       0x35 build/kernel/components/dfs/src/dfs_fs.o
                0x0000000080011378                __fsym_df_desc
                0x0000000080011388                __fsym_df_name
                0x0000000080011390                __fsym_mkfs_desc
                0x00000000800113a8                __fsym_mkfs_name
 .rodata.chdir.str1.8
                0x00000000800113ad        0x4 build/kernel/components/dfs/src/dfs_posix.o
 *fill*         0x00000000800113ad        0x3 
 .rodata.name   0x00000000800113b0       0x4e build/kernel/components/dfs/src/dfs_posix.o
                0x00000000800113b0                __fsym_cd_desc
                0x00000000800113d8                __fsym_cd_name
                0x00000000800113e0                __fsym_mkdir_desc
                0x00000000800113f8                __fsym_mkdir_name
 *fill*         0x00000000800113fe        0x2 
 .rodata.list_fd.str1.8
                0x0000000080011400       0x8f build/kernel/components/dfs/src/dfs.o
                                         0xa2 (size before relaxing)
 *fill*         0x000000008001148f        0x1 
 .rodata.dfs_init.str1.8
                0x0000000080011490       0x26 build/kernel/components/dfs/src/dfs.o
                                         0x2d (size before relaxing)
 .rodata.dfs_lock.str1.8
                0x00000000800114b6        0x2 build/kernel/components/dfs/src/dfs.o
 *fill*         0x00000000800114b6        0x2 
 .rodata.fd_new.str1.8
                0x00000000800114b8       0x39 build/kernel/components/dfs/src/dfs.o
                                         0x49 (size before relaxing)
 *fill*         0x00000000800114f1        0x7 
 .rodata.fd_put.str1.8
                0x00000000800114f8        0xb build/kernel/components/dfs/src/dfs.o
 *fill*         0x0000000080011503        0x5 
 .rodata.dfs_normalize_path.str1.8
                0x0000000080011508       0x11 build/kernel/components/dfs/src/dfs.o
                                         0x1e (size before relaxing)
 *fill*         0x0000000080011519        0x7 
 .rodata.__FUNCTION__.0
                0x0000000080011520       0x13 build/kernel/components/dfs/src/dfs.o
 *fill*         0x0000000080011533        0x5 
 .rodata.__FUNCTION__.2
                0x0000000080011538        0x9 build/kernel/components/dfs/src/dfs.o
 *fill*         0x0000000080011541        0x7 
 .rodata.name   0x0000000080011548       0x26 build/kernel/components/dfs/src/dfs.o
                0x0000000080011548                __fsym___cmd_list_fd_desc
                0x0000000080011560                __fsym___cmd_list_fd_name
 .rodata.dfs_file_open.str1.8
                0x000000008001156e        0x2 build/kernel/components/dfs/src/dfs_file.o
 *fill*         0x000000008001156e        0x2 
 .rodata.cat.str1.8
                0x0000000080011570       0x10 build/kernel/components/dfs/src/dfs_file.o
                                         0x1a (size before relaxing)
 .rodata.rm.str1.8
                0x0000000080011580       0x12 build/kernel/components/dfs/src/dfs_file.o
 *fill*         0x0000000080011592        0x6 
 .rodata.copyfile.str1.8
                0x0000000080011598       0x4a build/kernel/components/dfs/src/dfs_file.o
                                         0x5a (size before relaxing)
 *fill*         0x00000000800115e2        0x6 
 .rodata.dfs_file_stat.str1.8
                0x00000000800115e8       0x5e build/kernel/components/dfs/src/dfs_file.o
                                         0x6e (size before relaxing)
 *fill*         0x0000000080011646        0x2 
 .rodata.ls.str1.8
                0x0000000080011648       0x53 build/kernel/components/dfs/src/dfs_file.o
 *fill*         0x000000008001169b        0x5 
 .rodata.copydir.str1.8
                0x00000000800116a0       0x36 build/kernel/components/dfs/src/dfs_file.o
                                         0x46 (size before relaxing)
 *fill*         0x00000000800116d6        0x2 
 .rodata.copy.str1.8
                0x00000000800116d8       0x44 build/kernel/components/dfs/src/dfs_file.o
 *fill*         0x000000008001171c        0x4 
 .rodata.name   0x0000000080011720       0x7b build/kernel/components/dfs/src/dfs_file.o
                0x0000000080011720                __fsym_copy_desc
                0x0000000080011738                __fsym_copy_name
                0x0000000080011740                __fsym_cat_desc
                0x0000000080011750                __fsym_cat_name
                0x0000000080011758                __fsym_rm_desc
                0x0000000080011778                __fsym_rm_name
                0x0000000080011780                __fsym_ls_desc
                0x0000000080011798                __fsym_ls_name
 *fill*         0x000000008001179b        0x5 
 .rodata.dfs_device_fs_ioctl.str1.8
                0x00000000800117a0       0x22 build/kernel/components/dfs/filesystems/devfs/devfs.o
 *fill*         0x00000000800117c2        0x6 
 .rodata.dfs_device_fs_close.str1.8
                0x00000000800117c8       0x17 build/kernel/components/dfs/filesystems/devfs/devfs.o
 .rodata.dfs_device_fs_open.str1.8
                0x00000000800117df       0x17 build/kernel/components/dfs/filesystems/devfs/devfs.o
 .rodata.str1.8
                0x00000000800117df        0x6 build/kernel/components/dfs/filesystems/devfs/devfs.o
 *fill*         0x00000000800117df        0x1 
 .rodata.__FUNCTION__.0
                0x00000000800117e0       0x17 build/kernel/components/dfs/filesystems/devfs/devfs.o
 *fill*         0x00000000800117f7        0x1 
 .rodata.__FUNCTION__.1
                0x00000000800117f8       0x13 build/kernel/components/dfs/filesystems/devfs/devfs.o
 *fill*         0x000000008001180b        0x5 
 .rodata.__FUNCTION__.2
                0x0000000080011810       0x14 build/kernel/components/dfs/filesystems/devfs/devfs.o
 *fill*         0x0000000080011824        0x4 
 .rodata.__FUNCTION__.3
                0x0000000080011828       0x14 build/kernel/components/dfs/filesystems/devfs/devfs.o
 *fill*         0x000000008001183c        0x4 
 .rodata.__FUNCTION__.4
                0x0000000080011840       0x13 build/kernel/components/dfs/filesystems/devfs/devfs.o
 *fill*         0x0000000080011853        0x5 
 .rodata.__FUNCTION__.5
                0x0000000080011858       0x14 build/kernel/components/dfs/filesystems/devfs/devfs.o
 *fill*         0x000000008001186c        0x4 
 .rodata._device_fops
                0x0000000080011870       0x48 build/kernel/components/dfs/filesystems/devfs/devfs.o
 .rodata._device_fs
                0x00000000800118b8       0x50 build/kernel/components/dfs/filesystems/devfs/devfs.o
 .rodata.dfs_romfs_read.str1.8
                0x0000000080011908        0xf build/kernel/components/dfs/filesystems/romfs/dfs_romfs.o
 *fill*         0x0000000080011917        0x1 
 .rodata.dfs_romfs_getdents.str1.8
                0x0000000080011918       0x21 build/kernel/components/dfs/filesystems/romfs/dfs_romfs.o
 *fill*         0x0000000080011939        0x7 
 .rodata.str1.8
                0x0000000080011940        0x4 build/kernel/components/dfs/filesystems/romfs/dfs_romfs.o
 *fill*         0x0000000080011944        0x4 
 .rodata.__FUNCTION__.0
                0x0000000080011948       0x13 build/kernel/components/dfs/filesystems/romfs/dfs_romfs.o
 *fill*         0x000000008001195b        0x5 
 .rodata.__FUNCTION__.1
                0x0000000080011960        0xf build/kernel/components/dfs/filesystems/romfs/dfs_romfs.o
 *fill*         0x000000008001196f        0x1 
 .rodata._rom_fops
                0x0000000080011970       0x48 build/kernel/components/dfs/filesystems/romfs/dfs_romfs.o
 .rodata._romfs
                0x00000000800119b8       0x50 build/kernel/components/dfs/filesystems/romfs/dfs_romfs.o
 .rodata.rt_serial_control.str1.8
                0x0000000080011a08        0xf build/kernel/components/drivers/serial/serial.o
 .rodata._serial_fifo_calc_recved_len.str1.8
                0x0000000080011a08       0x13 build/kernel/components/drivers/serial/serial.o
 *fill*         0x0000000080011a1b        0x5 
 .rodata.rt_serial_open.str1.8
                0x0000000080011a20       0x42 build/kernel/components/drivers/serial/serial.o
 *fill*         0x0000000080011a62        0x6 
 .rodata.rt_serial_write.str1.8
                0x0000000080011a68        0xe build/kernel/components/drivers/serial/serial.o
 *fill*         0x0000000080011a76        0x2 
 .rodata.rt_serial_read.str1.8
                0x0000000080011a78       0x7e build/kernel/components/drivers/serial/serial.o
 *fill*         0x0000000080011af6        0x2 
 .rodata._serial_check_buffer_size.str1.8
                0x0000000080011af8       0x73 build/kernel/components/drivers/serial/serial.o
                                         0x7a (size before relaxing)
 .rodata.rt_hw_serial_register.str1.8
                0x0000000080011b6b       0x12 build/kernel/components/drivers/serial/serial.o
 *fill*         0x0000000080011b6b        0x5 
 .rodata.rt_hw_serial_isr.str1.8
                0x0000000080011b70       0x26 build/kernel/components/drivers/serial/serial.o
 *fill*         0x0000000080011b96        0x2 
 .rodata.__FUNCTION__.0
                0x0000000080011b98       0x1d build/kernel/components/drivers/serial/serial.o
 *fill*         0x0000000080011bb5        0x3 
 .rodata.__FUNCTION__.10
                0x0000000080011bb8        0xf build/kernel/components/drivers/serial/serial.o
 *fill*         0x0000000080011bc7        0x1 
 .rodata.__FUNCTION__.11
                0x0000000080011bc8        0xf build/kernel/components/drivers/serial/serial.o
 *fill*         0x0000000080011bd7        0x1 
 .rodata.__FUNCTION__.13
                0x0000000080011bd8        0xf build/kernel/components/drivers/serial/serial.o
 *fill*         0x0000000080011be7        0x1 
 .rodata.__FUNCTION__.14
                0x0000000080011be8       0x10 build/kernel/components/drivers/serial/serial.o
 .rodata.__FUNCTION__.15
                0x0000000080011bf8       0x12 build/kernel/components/drivers/serial/serial.o
 *fill*         0x0000000080011c0a        0x6 
 .rodata.__FUNCTION__.16
                0x0000000080011c10       0x16 build/kernel/components/drivers/serial/serial.o
 *fill*         0x0000000080011c26        0x2 
 .rodata.__FUNCTION__.2
                0x0000000080011c28       0x11 build/kernel/components/drivers/serial/serial.o
 *fill*         0x0000000080011c39        0x7 
 .rodata.__FUNCTION__.3
                0x0000000080011c40        0xf build/kernel/components/drivers/serial/serial.o
 *fill*         0x0000000080011c4f        0x1 
 .rodata.__FUNCTION__.4
                0x0000000080011c50        0xf build/kernel/components/drivers/serial/serial.o
 *fill*         0x0000000080011c5f        0x1 
 .rodata.__FUNCTION__.5
                0x0000000080011c60       0x10 build/kernel/components/drivers/serial/serial.o
 .rodata.__FUNCTION__.7
                0x0000000080011c70       0x1d build/kernel/components/drivers/serial/serial.o
 *fill*         0x0000000080011c8d        0x3 
 .rodata.__FUNCTION__.8
                0x0000000080011c90       0x1d build/kernel/components/drivers/serial/serial.o
 *fill*         0x0000000080011cad        0x3 
 .rodata.__FUNCTION__.9
                0x0000000080011cb0        0xf build/kernel/components/drivers/serial/serial.o
 *fill*         0x0000000080011cbf        0x1 
 .rodata.rt_completion_init.str1.8
                0x0000000080011cc0       0x16 build/kernel/components/drivers/src/completion.o
 *fill*         0x0000000080011cd6        0x2 
 .rodata.rt_completion_wait.str1.8
                0x0000000080011cd8       0x2f build/kernel/components/drivers/src/completion.o
                                         0x5a (size before relaxing)
 *fill*         0x0000000080011d07        0x1 
 .rodata.__FUNCTION__.0
                0x0000000080011d08       0x13 build/kernel/components/drivers/src/completion.o
 *fill*         0x0000000080011d1b        0x5 
 .rodata.__FUNCTION__.1
                0x0000000080011d20       0x13 build/kernel/components/drivers/src/completion.o
 *fill*         0x0000000080011d33        0x5 
 .rodata.__FUNCTION__.2
                0x0000000080011d38       0x13 build/kernel/components/drivers/src/completion.o
 *fill*         0x0000000080011d4b        0x5 
 .rodata.rt_data_queue_init.str1.8
                0x0000000080011d50       0x21 build/kernel/components/drivers/src/dataqueue.o
 *fill*         0x0000000080011d71        0x7 
 .rodata.rt_data_queue_push.str1.8
                0x0000000080011d78       0x20 build/kernel/components/drivers/src/dataqueue.o
                                         0x4a (size before relaxing)
 .rodata.rt_data_queue_pop.str1.8
                0x0000000080011d98       0x28 build/kernel/components/drivers/src/dataqueue.o
 .rodata.__FUNCTION__.0
                0x0000000080011dc0       0x12 build/kernel/components/drivers/src/dataqueue.o
 *fill*         0x0000000080011dd2        0x6 
 .rodata.__FUNCTION__.1
                0x0000000080011dd8       0x15 build/kernel/components/drivers/src/dataqueue.o
 *fill*         0x0000000080011ded        0x3 
 .rodata.__FUNCTION__.2
                0x0000000080011df0       0x14 build/kernel/components/drivers/src/dataqueue.o
 *fill*         0x0000000080011e04        0x4 
 .rodata.__FUNCTION__.3
                0x0000000080011e08       0x13 build/kernel/components/drivers/src/dataqueue.o
 *fill*         0x0000000080011e1b        0x5 
 .rodata.__FUNCTION__.4
                0x0000000080011e20       0x12 build/kernel/components/drivers/src/dataqueue.o
 *fill*         0x0000000080011e32        0x6 
 .rodata.__FUNCTION__.5
                0x0000000080011e38       0x13 build/kernel/components/drivers/src/dataqueue.o
 *fill*         0x0000000080011e4b        0x5 
 .rodata.__FUNCTION__.6
                0x0000000080011e50       0x13 build/kernel/components/drivers/src/dataqueue.o
 *fill*         0x0000000080011e63        0x5 
 .rodata.rt_pin_mode.str1.8
                0x0000000080011e68       0x17 build/kernel/components/drivers/misc/pin.o
 *fill*         0x0000000080011e7f        0x1 
 .rodata.rt_pin_get.str1.8
                0x0000000080011e80        0xf build/kernel/components/drivers/misc/pin.o
 *fill*         0x0000000080011e8f        0x1 
 .rodata.__FUNCTION__.0
                0x0000000080011e90        0xb build/kernel/components/drivers/misc/pin.o
 *fill*         0x0000000080011e9b        0x5 
 .rodata.__FUNCTION__.1
                0x0000000080011ea0        0xc build/kernel/components/drivers/misc/pin.o
 *fill*         0x0000000080011eac        0x4 
 .rodata.__FUNCTION__.2
                0x0000000080011eb0        0xd build/kernel/components/drivers/misc/pin.o
 *fill*         0x0000000080011ebd        0x3 
 .rodata.__FUNCTION__.3
                0x0000000080011ec0        0xc build/kernel/components/drivers/misc/pin.o
 *fill*         0x0000000080011ecc        0x4 
 .rodata.name   0x0000000080011ed0       0xa8 build/kernel/components/drivers/misc/pin.o
                0x0000000080011ed0                __fsym_pinGet_desc
                0x0000000080011ef8                __fsym_pinGet_name
                0x0000000080011f00                __fsym_pinRead_desc
                0x0000000080011f20                __fsym_pinRead_name
                0x0000000080011f28                __fsym_pinWrite_desc
                0x0000000080011f48                __fsym_pinWrite_name
                0x0000000080011f58                __fsym_pinMode_desc
                0x0000000080011f70                __fsym_pinMode_name
 *(.glue_7)
 *(.glue_7t)
 *(.gnu.linkonce.t*)
                0x0000000080011f78                . = ALIGN (0x8)
                0x0000000080011f78                __fsymtab_start = .
 *(FSymTab)
 FSymTab        0x0000000080011f78       0x18 build/driver/board.o
                0x0000000080011f78                __fsym___cmd_reboot
 FSymTab        0x0000000080011f90       0x48 build/kernel/src/mem.o
                0x0000000080011f90                __fsym___cmd_memtrace
                0x0000000080011fa8                __fsym___cmd_memcheck
                0x0000000080011fc0                __fsym_list_mem
 FSymTab        0x0000000080011fd8      0x240 build/kernel/components/finsh/cmd.o
                0x0000000080011fd8                __fsym_list
                0x0000000080011ff0                __fsym___cmd_list_device
                0x0000000080012008                __fsym_list_device
                0x0000000080012020                __fsym___cmd_list_timer
                0x0000000080012038                __fsym_list_timer
                0x0000000080012050                __fsym___cmd_list_mempool
                0x0000000080012068                __fsym_list_mempool
                0x0000000080012080                __fsym___cmd_list_msgqueue
                0x0000000080012098                __fsym_list_msgqueue
                0x00000000800120b0                __fsym___cmd_list_mailbox
                0x00000000800120c8                __fsym_list_mailbox
                0x00000000800120e0                __fsym___cmd_list_mutex
                0x00000000800120f8                __fsym_list_mutex
                0x0000000080012110                __fsym___cmd_list_event
                0x0000000080012128                __fsym_list_event
                0x0000000080012140                __fsym___cmd_list_sem
                0x0000000080012158                __fsym_list_sem
                0x0000000080012170                __fsym___cmd_list_thread
                0x0000000080012188                __fsym_list_thread
                0x00000000800121a0                __fsym___cmd_version
                0x00000000800121b8                __fsym_version
                0x00000000800121d0                __fsym___cmd_clear
                0x00000000800121e8                __fsym_clear
                0x0000000080012200                __fsym_hello
 FSymTab        0x0000000080012218      0x150 build/kernel/components/finsh/msh_file.o
                0x0000000080012218                __fsym___cmd_tail
                0x0000000080012230                __fsym___cmd_echo
                0x0000000080012248                __fsym___cmd_df
                0x0000000080012260                __fsym___cmd_umount
                0x0000000080012278                __fsym___cmd_mount
                0x0000000080012290                __fsym___cmd_mkfs
                0x00000000800122a8                __fsym___cmd_mkdir
                0x00000000800122c0                __fsym___cmd_pwd
                0x00000000800122d8                __fsym___cmd_cd
                0x00000000800122f0                __fsym___cmd_rm
                0x0000000080012308                __fsym___cmd_cat
                0x0000000080012320                __fsym___cmd_mv
                0x0000000080012338                __fsym___cmd_cp
                0x0000000080012350                __fsym___cmd_ls
 FSymTab        0x0000000080012368       0x48 build/kernel/components/finsh/msh.o
                0x0000000080012368                __fsym___cmd_free
                0x0000000080012380                __fsym___cmd_ps
                0x0000000080012398                __fsym___cmd_help
 FSymTab        0x00000000800123b0       0x30 build/kernel/components/dfs/src/dfs_fs.o
                0x00000000800123b0                __fsym_df
                0x00000000800123c8                __fsym_mkfs
 FSymTab        0x00000000800123e0       0x30 build/kernel/components/dfs/src/dfs_posix.o
                0x00000000800123e0                __fsym_cd
                0x00000000800123f8                __fsym_mkdir
 FSymTab        0x0000000080012410       0x18 build/kernel/components/dfs/src/dfs.o
                0x0000000080012410                __fsym___cmd_list_fd
 FSymTab        0x0000000080012428       0x60 build/kernel/components/dfs/src/dfs_file.o
                0x0000000080012428                __fsym_copy
                0x0000000080012440                __fsym_cat
                0x0000000080012458                __fsym_rm
                0x0000000080012470                __fsym_ls
 FSymTab        0x0000000080012488       0x60 build/kernel/components/drivers/misc/pin.o
                0x0000000080012488                __fsym_pinGet
                0x00000000800124a0                __fsym_pinRead
                0x00000000800124b8                __fsym_pinWrite
                0x00000000800124d0                __fsym_pinMode
                0x00000000800124e8                __fsymtab_end = .
                0x00000000800124e8                . = ALIGN (0x8)
                0x00000000800124e8                __vsymtab_start = .
 *(VSymTab)
                0x00000000800124e8                __vsymtab_end = .
                0x00000000800124e8                . = ALIGN (0x8)
                0x00000000800124e8                . = ALIGN (0x8)
                0x00000000800124e8                __rt_init_start = .
 *(SORT_BY_NAME(.rti_fn*))
 .rti_fn.0      0x00000000800124e8        0x8 build/kernel/src/components.o
                0x00000000800124e8                __rt_init_rti_start
 .rti_fn.0.end  0x00000000800124f0        0x8 build/kernel/src/components.o
                0x00000000800124f0                __rt_init_rti_board_start
 .rti_fn.1.end  0x00000000800124f8        0x8 build/kernel/src/components.o
                0x00000000800124f8                __rt_init_rti_board_end
 .rti_fn.2      0x0000000080012500        0x8 build/kernel/components/dfs/src/dfs.o
                0x0000000080012500                __rt_init_dfs_init
 .rti_fn.4      0x0000000080012508        0x8 build/kernel/components/dfs/filesystems/romfs/dfs_romfs.o
                0x0000000080012508                __rt_init_dfs_romfs_init
 .rti_fn.6      0x0000000080012510        0x8 build/kernel/components/finsh/shell.o
                0x0000000080012510                __rt_init_finsh_system_init
 .rti_fn.6.end  0x0000000080012518        0x8 build/kernel/src/components.o
                0x0000000080012518                __rt_init_rti_end
                0x0000000080012520                __rt_init_end = .
                0x0000000080012520                . = ALIGN (0x8)
                0x0000000080012520                __rt_utest_tc_tab_start = .
 *(UtestTcTab)
                0x0000000080012520                __rt_utest_tc_tab_end = .
                0x0000000080012520                . = ALIGN (0x8)
                0x0000000080012520                _etext = .

.srodata.cst8   0x0000000080012520        0x8
 .srodata.cst8  0x0000000080012520        0x8 build/driver/drv_uart.o

.srodata.__FUNCTION__.0
                0x0000000080012528        0x8
 .srodata.__FUNCTION__.0
                0x0000000080012528        0x8 build/kernel/src/mem.o

.srodata.__FUNCTION__.1
                0x0000000080012530        0x7
 .srodata.__FUNCTION__.1
                0x0000000080012530        0x7 build/kernel/components/dfs/src/dfs.o

.rela.dyn       0x0000000080012538        0x0
 .rela.text.primary_cpu_entry
                0x0000000080012538        0x0 build/applications/can_util.o
 .rela.text.rt_hw_board_init
                0x0000000080012538        0x0 build/applications/can_util.o
 .rela.text.rt_hw_stack_init
                0x0000000080012538        0x0 build/applications/can_util.o
 .rela.start    0x0000000080012538        0x0 build/applications/can_util.o
 .rela.text.entry
                0x0000000080012538        0x0 build/applications/can_util.o
 .rela.text.finsh_system_init
                0x0000000080012538        0x0 build/applications/can_util.o

.eh_frame_hdr
 *(.eh_frame_hdr)
 *(.eh_frame_entry)

.eh_frame
 *(.eh_frame)
                0x0000000080012538                . = ALIGN (0x8)

.data           0x0000000080012538      0x249
 *(.data)
 *(.data.*)
 .data.Motor_chassismotorpidparam
                0x0000000080012538       0x14 build/applications/motor_periph.o
                0x0000000080012538                Motor_chassismotorpidparam
 *fill*         0x000000008001254c        0x4 
 .data.rt_object_container
                0x0000000080012550      0x120 build/kernel/src/object.o
 .data._rt_thread_defunct
                0x0000000080012670       0x10 build/kernel/src/idle.o
 .data.working_directory
                0x0000000080012680      0x100 build/kernel/components/dfs/src/dfs.o
                0x0000000080012680                working_directory
 *(.data1)
 *(.data1.*)
                0x0000000080012780                . = ALIGN (0x8)
                0x0000000080012f80                PROVIDE (__global_pointer$ = (. + 0x800))
 *(.sdata)
 *(.sdata.*)
 .sdata.soft_timer_status
                0x0000000080012780        0x1 build/kernel/src/timer.o

.stack          0x0000000080012781     0x9c7f
                0x00000000800127c0                . = ALIGN (0x40)
 *fill*         0x0000000080012781       0x3f 
                0x00000000800127c0                __stack_start__ = .
                0x00000000800175e0                . = (. + __STACKSIZE__)
 *fill*         0x00000000800127c0     0x4e20 
                0x00000000800175e0                __stack_cpu0 = .
                0x000000008001c400                . = (. + __STACKSIZE__)
 *fill*         0x00000000800175e0     0x4e20 
                0x000000008001c400                __stack_cpu1 = .

.sbss           0x000000008001c400      0x140
                0x000000008001c400                __bss_start = .
 *(.sbss)
 *(.sbss.*)
 .sbss.heap_end
                0x000000008001c400        0x8 build/kernel/src/mem.o
 .sbss.heap_ptr
                0x000000008001c408        0x8 build/kernel/src/mem.o
 .sbss.lfree    0x000000008001c410        0x8 build/kernel/src/mem.o
 .sbss.max_mem  0x000000008001c418        0x8 build/kernel/src/mem.o
 .sbss.mem_size_aligned
                0x000000008001c420        0x8 build/kernel/src/mem.o
 .sbss.rt_free_hook
                0x000000008001c428        0x8 build/kernel/src/mem.o
 .sbss.rt_malloc_hook
                0x000000008001c430        0x8 build/kernel/src/mem.o
 .sbss.used_mem
                0x000000008001c438        0x8 build/kernel/src/mem.o
 .sbss.rt_thread_inited_hook
                0x000000008001c440        0x8 build/kernel/src/thread.o
 .sbss.rt_thread_resume_hook
                0x000000008001c448        0x8 build/kernel/src/thread.o
 .sbss.rt_thread_suspend_hook
                0x000000008001c450        0x8 build/kernel/src/thread.o
 .sbss.__rt_errno
                0x000000008001c458        0x4 build/kernel/src/kservice.o
 *fill*         0x000000008001c45c        0x4 
 .sbss._console_device
                0x000000008001c460        0x8 build/kernel/src/kservice.o
 .sbss.rt_assert_hook
                0x000000008001c468        0x8 build/kernel/src/kservice.o
                0x000000008001c468                rt_assert_hook
 .sbss.rt_object_attach_hook
                0x000000008001c470        0x8 build/kernel/src/object.o
 .sbss.rt_object_detach_hook
                0x000000008001c478        0x8 build/kernel/src/object.o
 .sbss.rt_object_put_hook
                0x000000008001c480        0x8 build/kernel/src/object.o
                0x000000008001c480                rt_object_put_hook
 .sbss.rt_object_take_hook
                0x000000008001c488        0x8 build/kernel/src/object.o
                0x000000008001c488                rt_object_take_hook
 .sbss.rt_object_trytake_hook
                0x000000008001c490        0x8 build/kernel/src/object.o
                0x000000008001c490                rt_object_trytake_hook
 .sbss.rt_current_priority
                0x000000008001c498        0x1 build/kernel/src/scheduler.o
                0x000000008001c498                rt_current_priority
 *fill*         0x000000008001c499        0x7 
 .sbss.rt_current_thread
                0x000000008001c4a0        0x8 build/kernel/src/scheduler.o
                0x000000008001c4a0                rt_current_thread
 .sbss.rt_scheduler_hook
                0x000000008001c4a8        0x8 build/kernel/src/scheduler.o
 .sbss.rt_scheduler_lock_nest
                0x000000008001c4b0        0x2 build/kernel/src/scheduler.o
 *fill*         0x000000008001c4b2        0x6 
 .sbss.rt_scheduler_switch_hook
                0x000000008001c4b8        0x8 build/kernel/src/scheduler.o
 .sbss.rt_thread_ready_priority_group
                0x000000008001c4c0        0x4 build/kernel/src/scheduler.o
                0x000000008001c4c0                rt_thread_ready_priority_group
 .sbss.rt_tick  0x000000008001c4c4        0x4 build/kernel/src/clock.o
 .sbss.rt_interrupt_enter_hook
                0x000000008001c4c8        0x8 build/kernel/src/irq.o
 .sbss.rt_interrupt_leave_hook
                0x000000008001c4d0        0x8 build/kernel/src/irq.o
 .sbss.rt_interrupt_nest
                0x000000008001c4d8        0x1 build/kernel/src/irq.o
                0x000000008001c4d8                rt_interrupt_nest
 *fill*         0x000000008001c4d9        0x3 
 .sbss.random_nr.2
                0x000000008001c4dc        0x4 build/kernel/src/timer.o
 .sbss.rt_timer_enter_hook
                0x000000008001c4e0        0x8 build/kernel/src/timer.o
 .sbss.rt_timer_exit_hook
                0x000000008001c4e8        0x8 build/kernel/src/timer.o
 .sbss.rt_interrupt_from_thread
                0x000000008001c4f0        0x8 /home/ddddddd/my_learn/cpu_relative/prog/src/rtthread/libcpu/risc-v/virt64/cpuport.o
                0x000000008001c4f0                rt_interrupt_from_thread
 .sbss.rt_interrupt_to_thread
                0x000000008001c4f8        0x8 /home/ddddddd/my_learn/cpu_relative/prog/src/rtthread/libcpu/risc-v/virt64/cpuport.o
                0x000000008001c4f8                rt_interrupt_to_thread
 .sbss.rt_thread_switch_interrupt_flag
                0x000000008001c500        0x8 /home/ddddddd/my_learn/cpu_relative/prog/src/rtthread/libcpu/risc-v/virt64/cpuport.o
                0x000000008001c500                rt_thread_switch_interrupt_flag
 .sbss._syscall_table_begin
                0x000000008001c508        0x8 build/kernel/components/finsh/shell.o
                0x000000008001c508                _syscall_table_begin
 .sbss._syscall_table_end
                0x000000008001c510        0x8 build/kernel/components/finsh/shell.o
                0x000000008001c510                _syscall_table_end
 .sbss._sysvar_table_begin
                0x000000008001c518        0x8 build/kernel/components/finsh/shell.o
                0x000000008001c518                _sysvar_table_begin
 .sbss._sysvar_table_end
                0x000000008001c520        0x8 build/kernel/components/finsh/shell.o
                0x000000008001c520                _sysvar_table_end
 .sbss.finsh_prompt_custom
                0x000000008001c528        0x8 build/kernel/components/finsh/shell.o
 .sbss.shell    0x000000008001c530        0x8 build/kernel/components/finsh/shell.o
                0x000000008001c530                shell
 .sbss.init_ok.3
                0x000000008001c538        0x4 build/kernel/components/dfs/src/dfs.o
 .sbss.already_output.1
                0x000000008001c53c        0x4 build/kernel/components/drivers/serial/serial.o
 *(.dynsbss)
 *(.scommon)

.bss            0x000000008001c540     0x3470
 *(.bss)
 *(.bss.*)
 .bss.Motor_chassisLeft1
                0x000000008001c540       0x58 build/applications/motor_periph.o
                0x000000008001c540                Motor_chassisLeft1
 .bss.Motor_chassisLeft2
                0x000000008001c598       0x58 build/applications/motor_periph.o
                0x000000008001c598                Motor_chassisLeft2
 .bss.Motor_chassisMotors
                0x000000008001c5f0      0x188 build/applications/motor_periph.o
                0x000000008001c5f0                Motor_chassisMotors
 .bss.Motor_chassisRight1
                0x000000008001c778       0x58 build/applications/motor_periph.o
                0x000000008001c778                Motor_chassisRight1
 .bss.Motor_chassisRight2
                0x000000008001c7d0       0x58 build/applications/motor_periph.o
                0x000000008001c7d0                Motor_chassisRight2
 .bss.serial1   0x000000008001c828       0xa0 build/driver/drv_uart.o
                0x000000008001c828                serial1
 .bss.uart1     0x000000008001c8c8       0x10 build/driver/drv_uart.o
                0x000000008001c8c8                uart1
 .bss.heap_sem  0x000000008001c8d8       0x40 build/kernel/src/mem.o
 .bss.rt_log_buf.0
                0x000000008001c918      0x100 build/kernel/src/kservice.o
 .bss.rt_thread_priority_table
                0x000000008001ca18      0x200 build/kernel/src/scheduler.o
                0x000000008001ca18                rt_thread_priority_table
 .bss.rt_soft_timer_list
                0x000000008001cc18       0x10 build/kernel/src/timer.o
 .bss.rt_timer_list
                0x000000008001cc28       0x10 build/kernel/src/timer.o
 .bss.timer_thread
                0x000000008001cc38       0xe8 build/kernel/src/timer.o
 .bss.timer_thread_stack
                0x000000008001cd20     0x1000 build/kernel/src/timer.o
 .bss.idle      0x000000008001dd20       0xe8 build/kernel/src/idle.o
 .bss.idle_hook_list
                0x000000008001de08       0x20 build/kernel/src/idle.o
 .bss.rt_thread_stack
                0x000000008001de28     0x1000 build/kernel/src/idle.o
 .bss.irq_desc  0x000000008001ee28      0x800 /home/ddddddd/my_learn/cpu_relative/prog/src/rtthread/libcpu/risc-v/virt64/interrupt.o
 .bss.finsh_prompt.8
                0x000000008001f628      0x101 build/kernel/components/finsh/shell.o
 *fill*         0x000000008001f729        0x7 
 .bss._fdtab    0x000000008001f730       0x10 build/kernel/components/dfs/src/dfs.o
 .bss.filesystem_operation_table
                0x000000008001f740       0x10 build/kernel/components/dfs/src/dfs.o
                0x000000008001f740                filesystem_operation_table
 .bss.filesystem_table
                0x000000008001f750       0x40 build/kernel/components/dfs/src/dfs.o
                0x000000008001f750                filesystem_table
 .bss.fslock    0x000000008001f790       0x48 build/kernel/components/dfs/src/dfs.o
 .bss.dirent    0x000000008001f7d8      0x104 build/kernel/components/dfs/src/dfs_file.o
 *fill*         0x000000008001f8dc        0x4 
 .bss.fd        0x000000008001f8e0       0x48 build/kernel/components/dfs/src/dfs_file.o
 .bss._hw_pin   0x000000008001f928       0x88 build/kernel/components/drivers/misc/pin.o
 *(.dynbss)
 *(COMMON)
                0x000000008001f9b0                __bss_end = .
                0x000000008001f9b0                _end = .

.stab
 *(.stab)

.stabstr
 *(.stabstr)

.stab.excl
 *(.stab.excl)

.stab.exclstr
 *(.stab.exclstr)

.stab.index
 *(.stab.index)

.stab.indexstr
 *(.stab.indexstr)

.comment        0x0000000000000000       0x2b
 *(.comment)
 .comment       0x0000000000000000       0x2b build/applications/can_util.o
                                         0x2c (size before relaxing)
 .comment       0x000000000000002b       0x2c build/applications/main.o
 .comment       0x000000000000002b       0x2c build/applications/pid_alg.o
 .comment       0x000000000000002b       0x2c build/applications/motor_periph.o
 .comment       0x000000000000002b       0x2c build/driver/plic.o
 .comment       0x000000000000002b       0x2c build/driver/drv_uart.o
 .comment       0x000000000000002b       0x2c build/driver/board.o
 .comment       0x000000000000002b       0x2c build/driver/lib/stdlib.o
 .comment       0x000000000000002b       0x2c build/driver/lib/string.o
 .comment       0x000000000000002b       0x2c build/kernel/src/device.o
 .comment       0x000000000000002b       0x2c build/kernel/src/mem.o
 .comment       0x000000000000002b       0x2c build/kernel/src/thread.o
 .comment       0x000000000000002b       0x2c build/kernel/src/kservice.o
 .comment       0x000000000000002b       0x2c build/kernel/src/fixpoint.o
 .comment       0x000000000000002b       0x2c build/kernel/src/object.o
 .comment       0x000000000000002b       0x2c build/kernel/src/components.o
 .comment       0x000000000000002b       0x2c build/kernel/src/scheduler.o
 .comment       0x000000000000002b       0x2c build/kernel/src/clock.o
 .comment       0x000000000000002b       0x2c build/kernel/src/irq.o
 .comment       0x000000000000002b       0x2c build/kernel/src/timer.o
 .comment       0x000000000000002b       0x2c build/kernel/src/ipc.o
 .comment       0x000000000000002b       0x2c build/kernel/src/idle.o
 .comment       0x000000000000002b       0x2c /home/ddddddd/my_learn/cpu_relative/prog/src/rtthread/libcpu/risc-v/virt64/interrupt.o
 .comment       0x000000000000002b       0x2c /home/ddddddd/my_learn/cpu_relative/prog/src/rtthread/libcpu/risc-v/virt64/cpuport.o
 .comment       0x000000000000002b       0x2c /home/ddddddd/my_learn/cpu_relative/prog/src/rtthread/libcpu/risc-v/virt64/tick.o
 .comment       0x000000000000002b       0x2c build/kernel/components/finsh/cmd.o
 .comment       0x000000000000002b       0x2c build/kernel/components/finsh/shell.o
 .comment       0x000000000000002b       0x2c build/kernel/components/finsh/msh_file.o
 .comment       0x000000000000002b       0x2c build/kernel/components/finsh/msh.o
 .comment       0x000000000000002b       0x2c build/kernel/components/dfs/src/dfs_fs.o
 .comment       0x000000000000002b       0x2c build/kernel/components/dfs/src/dfs_posix.o
 .comment       0x000000000000002b       0x2c build/kernel/components/dfs/src/dfs.o
 .comment       0x000000000000002b       0x2c build/kernel/components/dfs/src/dfs_file.o
 .comment       0x000000000000002b       0x2c build/kernel/components/dfs/filesystems/devfs/devfs.o
 .comment       0x000000000000002b       0x2c build/kernel/components/dfs/filesystems/romfs/dfs_romfs.o
 .comment       0x000000000000002b       0x2c build/kernel/components/drivers/serial/serial.o
 .comment       0x000000000000002b       0x2c build/kernel/components/drivers/src/completion.o
 .comment       0x000000000000002b       0x2c build/kernel/components/drivers/src/dataqueue.o
 .comment       0x000000000000002b       0x2c build/kernel/components/drivers/misc/pin.o

.note.GNU-stack
                0x0000000000000000        0x0
 .note.GNU-stack
                0x0000000000000000        0x0 build/applications/can_util.o
 .note.GNU-stack
                0x0000000000000000        0x0 build/applications/main.o
 .note.GNU-stack
                0x0000000000000000        0x0 build/applications/pid_alg.o
 .note.GNU-stack
                0x0000000000000000        0x0 build/applications/motor_periph.o
 .note.GNU-stack
                0x0000000000000000        0x0 build/driver/plic.o
 .note.GNU-stack
                0x0000000000000000        0x0 build/driver/drv_uart.o
 .note.GNU-stack
                0x0000000000000000        0x0 build/driver/board.o
 .note.GNU-stack
                0x0000000000000000        0x0 build/driver/lib/stdlib.o
 .note.GNU-stack
                0x0000000000000000        0x0 build/driver/lib/string.o
 .note.GNU-stack
                0x0000000000000000        0x0 build/kernel/src/device.o
 .note.GNU-stack
                0x0000000000000000        0x0 build/kernel/src/mem.o
 .note.GNU-stack
                0x0000000000000000        0x0 build/kernel/src/thread.o
 .note.GNU-stack
                0x0000000000000000        0x0 build/kernel/src/kservice.o
 .note.GNU-stack
                0x0000000000000000        0x0 build/kernel/src/fixpoint.o
 .note.GNU-stack
                0x0000000000000000        0x0 build/kernel/src/object.o
 .note.GNU-stack
                0x0000000000000000        0x0 build/kernel/src/components.o
 .note.GNU-stack
                0x0000000000000000        0x0 build/kernel/src/scheduler.o
 .note.GNU-stack
                0x0000000000000000        0x0 build/kernel/src/clock.o
 .note.GNU-stack
                0x0000000000000000        0x0 build/kernel/src/irq.o
 .note.GNU-stack
                0x0000000000000000        0x0 build/kernel/src/timer.o
 .note.GNU-stack
                0x0000000000000000        0x0 build/kernel/src/ipc.o
 .note.GNU-stack
                0x0000000000000000        0x0 build/kernel/src/idle.o
 .note.GNU-stack
                0x0000000000000000        0x0 /home/ddddddd/my_learn/cpu_relative/prog/src/rtthread/libcpu/risc-v/virt64/interrupt.o
 .note.GNU-stack
                0x0000000000000000        0x0 /home/ddddddd/my_learn/cpu_relative/prog/src/rtthread/libcpu/risc-v/virt64/cpuport.o
 .note.GNU-stack
                0x0000000000000000        0x0 /home/ddddddd/my_learn/cpu_relative/prog/src/rtthread/libcpu/risc-v/virt64/tick.o
 .note.GNU-stack
                0x0000000000000000        0x0 build/kernel/components/finsh/cmd.o
 .note.GNU-stack
                0x0000000000000000        0x0 build/kernel/components/finsh/shell.o
 .note.GNU-stack
                0x0000000000000000        0x0 build/kernel/components/finsh/msh_file.o
 .note.GNU-stack
                0x0000000000000000        0x0 build/kernel/components/finsh/msh.o
 .note.GNU-stack
                0x0000000000000000        0x0 build/kernel/components/dfs/src/dfs_fs.o
 .note.GNU-stack
                0x0000000000000000        0x0 build/kernel/components/dfs/src/dfs_posix.o
 .note.GNU-stack
                0x0000000000000000        0x0 build/kernel/components/dfs/src/dfs.o
 .note.GNU-stack
                0x0000000000000000        0x0 build/kernel/components/dfs/src/dfs_file.o
 .note.GNU-stack
                0x0000000000000000        0x0 build/kernel/components/dfs/filesystems/devfs/devfs.o
 .note.GNU-stack
                0x0000000000000000        0x0 build/kernel/components/dfs/filesystems/romfs/dfs_romfs.o
 .note.GNU-stack
                0x0000000000000000        0x0 build/kernel/components/drivers/serial/serial.o
 .note.GNU-stack
                0x0000000000000000        0x0 build/kernel/components/drivers/src/completion.o
 .note.GNU-stack
                0x0000000000000000        0x0 build/kernel/components/drivers/src/dataqueue.o
 .note.GNU-stack
                0x0000000000000000        0x0 build/kernel/components/drivers/misc/pin.o

.riscv.attributes
                0x0000000000000000       0x28
 .riscv.attributes
                0x0000000000000000       0x24 build/applications/can_util.o
 .riscv.attributes
                0x0000000000000024       0x24 build/applications/main.o
 .riscv.attributes
                0x0000000000000048       0x24 build/applications/pid_alg.o
 .riscv.attributes
                0x000000000000006c       0x24 build/applications/motor_periph.o
 .riscv.attributes
                0x0000000000000090       0x28 build/driver/plic.o
 .riscv.attributes
                0x00000000000000b8       0x24 build/driver/drv_uart.o
 .riscv.attributes
                0x00000000000000dc       0x24 build/driver/board.o
 .riscv.attributes
                0x0000000000000100       0x24 build/driver/lib/stdlib.o
 .riscv.attributes
                0x0000000000000124       0x24 build/driver/lib/string.o
 .riscv.attributes
                0x0000000000000148       0x24 build/kernel/src/device.o
 .riscv.attributes
                0x000000000000016c       0x24 build/kernel/src/mem.o
 .riscv.attributes
                0x0000000000000190       0x24 build/kernel/src/thread.o
 .riscv.attributes
                0x00000000000001b4       0x24 build/kernel/src/kservice.o
 .riscv.attributes
                0x00000000000001d8       0x24 build/kernel/src/fixpoint.o
 .riscv.attributes
                0x00000000000001fc       0x24 build/kernel/src/object.o
 .riscv.attributes
                0x0000000000000220       0x24 build/kernel/src/components.o
 .riscv.attributes
                0x0000000000000244       0x24 build/kernel/src/scheduler.o
 .riscv.attributes
                0x0000000000000268       0x24 build/kernel/src/clock.o
 .riscv.attributes
                0x000000000000028c       0x24 build/kernel/src/irq.o
 .riscv.attributes
                0x00000000000002b0       0x24 build/kernel/src/timer.o
 .riscv.attributes
                0x00000000000002d4       0x24 build/kernel/src/ipc.o
 .riscv.attributes
                0x00000000000002f8       0x24 build/kernel/src/idle.o
 .riscv.attributes
                0x000000000000031c       0x28 /home/ddddddd/my_learn/cpu_relative/prog/src/rtthread/libcpu/risc-v/virt64/interrupt.o
 .riscv.attributes
                0x0000000000000344       0x24 /home/ddddddd/my_learn/cpu_relative/prog/src/rtthread/libcpu/risc-v/virt64/cpuport.o
 .riscv.attributes
                0x0000000000000368       0x24 /home/ddddddd/my_learn/cpu_relative/prog/src/rtthread/libcpu/risc-v/virt64/muldi3.o
 .riscv.attributes
                0x000000000000038c       0x28 /home/ddddddd/my_learn/cpu_relative/prog/src/rtthread/libcpu/risc-v/virt64/context_gcc.o
 .riscv.attributes
                0x00000000000003b4       0x28 /home/ddddddd/my_learn/cpu_relative/prog/src/rtthread/libcpu/risc-v/virt64/tick.o
 .riscv.attributes
                0x00000000000003dc       0x28 /home/ddddddd/my_learn/cpu_relative/prog/src/rtthread/libcpu/risc-v/virt64/startup_gcc.o
 .riscv.attributes
                0x0000000000000404       0x28 /home/ddddddd/my_learn/cpu_relative/prog/src/rtthread/libcpu/risc-v/virt64/interrupt_gcc.o
 .riscv.attributes
                0x000000000000042c       0x24 /home/ddddddd/my_learn/cpu_relative/prog/src/rtthread/libcpu/risc-v/virt64/div.o
 .riscv.attributes
                0x0000000000000450       0x24 build/kernel/components/finsh/cmd.o
 .riscv.attributes
                0x0000000000000474       0x24 build/kernel/components/finsh/shell.o
 .riscv.attributes
                0x0000000000000498       0x24 build/kernel/components/finsh/msh_file.o
 .riscv.attributes
                0x00000000000004bc       0x24 build/kernel/components/finsh/msh.o
 .riscv.attributes
                0x00000000000004e0       0x24 build/kernel/components/dfs/src/dfs_fs.o
 .riscv.attributes
                0x0000000000000504       0x24 build/kernel/components/dfs/src/dfs_posix.o
 .riscv.attributes
                0x0000000000000528       0x24 build/kernel/components/dfs/src/dfs.o
 .riscv.attributes
                0x000000000000054c       0x24 build/kernel/components/dfs/src/dfs_file.o
 .riscv.attributes
                0x0000000000000570       0x24 build/kernel/components/dfs/filesystems/devfs/devfs.o
 .riscv.attributes
                0x0000000000000594       0x24 build/kernel/components/dfs/filesystems/romfs/dfs_romfs.o
 .riscv.attributes
                0x00000000000005b8       0x24 build/kernel/components/drivers/serial/serial.o
 .riscv.attributes
                0x00000000000005dc       0x24 build/kernel/components/drivers/src/completion.o
 .riscv.attributes
                0x0000000000000600       0x24 build/kernel/components/drivers/src/dataqueue.o
 .riscv.attributes
                0x0000000000000624       0x24 build/kernel/components/drivers/misc/pin.o

.debug
 *(.debug)

.line
 *(.line)

.debug_srcinfo
 *(.debug_srcinfo)

.debug_sfnames
 *(.debug_sfnames)

.debug_aranges
 *(.debug_aranges)

.debug_pubnames
 *(.debug_pubnames)

.debug_info
 *(.debug_info .gnu.linkonce.wi.*)

.debug_abbrev
 *(.debug_abbrev)

.debug_line
 *(.debug_line)

.debug_frame
 *(.debug_frame)

.debug_str
 *(.debug_str)

.debug_loc
 *(.debug_loc)

.debug_macinfo
 *(.debug_macinfo)

.debug_weaknames
 *(.debug_weaknames)

.debug_funcnames
 *(.debug_funcnames)

.debug_typenames
 *(.debug_typenames)

.debug_varnames
 *(.debug_varnames)
LOAD build/applications/can_util.o
LOAD build/applications/uart_util.o
LOAD build/applications/main.o
LOAD build/applications/pid_alg.o
LOAD build/applications/motor_periph.o
LOAD build/driver/plic.o
LOAD build/driver/drv_uart.o
LOAD build/driver/board.o
LOAD build/driver/sbi.o
LOAD build/driver/lib/stdlib.o
LOAD build/driver/lib/stdio.o
LOAD build/driver/lib/string.o
LOAD build/kernel/src/device.o
LOAD build/kernel/src/mem.o
LOAD build/kernel/src/thread.o
LOAD build/kernel/src/kservice.o
LOAD build/kernel/src/fixpoint.o
LOAD build/kernel/src/object.o
LOAD build/kernel/src/components.o
LOAD build/kernel/src/scheduler.o
LOAD build/kernel/src/clock.o
LOAD build/kernel/src/irq.o
LOAD build/kernel/src/timer.o
LOAD build/kernel/src/ipc.o
LOAD build/kernel/src/mempool.o
LOAD build/kernel/src/idle.o
LOAD /home/ddddddd/my_learn/cpu_relative/prog/src/rtthread/libcpu/risc-v/virt64/interrupt.o
LOAD /home/ddddddd/my_learn/cpu_relative/prog/src/rtthread/libcpu/risc-v/virt64/cpuport.o
LOAD /home/ddddddd/my_learn/cpu_relative/prog/src/rtthread/libcpu/risc-v/virt64/muldi3.o
LOAD /home/ddddddd/my_learn/cpu_relative/prog/src/rtthread/libcpu/risc-v/virt64/context_gcc.o
LOAD /home/ddddddd/my_learn/cpu_relative/prog/src/rtthread/libcpu/risc-v/virt64/tick.o
LOAD /home/ddddddd/my_learn/cpu_relative/prog/src/rtthread/libcpu/risc-v/virt64/startup_gcc.o
LOAD /home/ddddddd/my_learn/cpu_relative/prog/src/rtthread/libcpu/risc-v/virt64/interrupt_gcc.o
LOAD /home/ddddddd/my_learn/cpu_relative/prog/src/rtthread/libcpu/risc-v/virt64/div.o
LOAD build/kernel/components/finsh/cmd.o
LOAD build/kernel/components/finsh/shell.o
LOAD build/kernel/components/finsh/msh_file.o
LOAD build/kernel/components/finsh/msh.o
LOAD build/kernel/components/dfs/src/dfs_fs.o
LOAD build/kernel/components/dfs/src/dfs_posix.o
LOAD build/kernel/components/dfs/src/dfs.o
LOAD build/kernel/components/dfs/src/dfs_file.o
LOAD build/kernel/components/dfs/filesystems/devfs/devfs.o
LOAD build/kernel/components/dfs/filesystems/romfs/dfs_romfs.o
LOAD build/kernel/components/dfs/filesystems/romfs/romfs.o
LOAD build/kernel/components/drivers/serial/serial.o
LOAD build/kernel/components/drivers/src/waitqueue.o
LOAD build/kernel/components/drivers/src/pipe.o
LOAD build/kernel/components/drivers/src/workqueue.o
LOAD build/kernel/components/drivers/src/completion.o
LOAD build/kernel/components/drivers/src/ringblk_buf.o
LOAD build/kernel/components/drivers/src/ringbuffer.o
LOAD build/kernel/components/drivers/src/dataqueue.o
LOAD build/kernel/components/drivers/misc/pin.o
OUTPUT(rtthread.elf elf64-littleriscv)

Cross Reference Table

Symbol                                            File
CAN_ErrorHandler                                  build/applications/can_util.o
CAN_GetData                                       build/applications/can_util.o
                                                  build/applications/motor_periph.o
CAN_SendData                                      build/applications/can_util.o
                                                  build/applications/motor_periph.o
Motor_Chassis_Decoder                             build/applications/motor_periph.o
                                                  build/applications/main.o
Motor_MotorEncoderDecode                          build/applications/motor_periph.o
Motor_MotorGroupInit                              build/applications/motor_periph.o
Motor_MotorGroupsPID_Clac                         build/applications/motor_periph.o
Motor_MotorPID_Clac                               build/applications/motor_periph.o
Motor_SendMessage                                 build/applications/motor_periph.o
Motor_chassisLeft1                                build/applications/motor_periph.o
Motor_chassisLeft2                                build/applications/motor_periph.o
Motor_chassisMotors                               build/applications/motor_periph.o
                                                  build/applications/main.o
Motor_chassisRight1                               build/applications/motor_periph.o
Motor_chassisRight2                               build/applications/motor_periph.o
Motor_chassismotorpidparam                        build/applications/motor_periph.o
Motor_motorInit                                   build/applications/motor_periph.o
PID_ChassisMotorpidparam                          build/applications/pid_alg.o
PID_ClacPID                                       build/applications/pid_alg.o
                                                  build/applications/motor_periph.o
PID_ClearPID                                      build/applications/pid_alg.o
PID_GetPIDOutput                                  build/applications/pid_alg.o
PID_GetPIDRef                                     build/applications/pid_alg.o
PID_InitPID                                       build/applications/pid_alg.o
                                                  build/applications/motor_periph.o
PID_InitPIDParam                                  build/applications/pid_alg.o
PID_SetPIDFdb                                     build/applications/pid_alg.o
PID_SetPIDMax                                     build/applications/pid_alg.o
PID_SetPIDRef                                     build/applications/pid_alg.o
Task_MotorControl                                 build/applications/motor_periph.o
                                                  build/applications/main.o
__bss_end                                         build/driver/board.o
__bss_start                                       build/driver/board.o
__divdi3                                          /home/ddddddd/my_learn/cpu_relative/prog/src/rtthread/libcpu/risc-v/virt64/div.o
                                                  build/kernel/src/clock.o
                                                  build/kernel/src/fixpoint.o
__divsi3                                          /home/ddddddd/my_learn/cpu_relative/prog/src/rtthread/libcpu/risc-v/virt64/div.o
__fsym___cmd_cat                                  build/kernel/components/finsh/msh_file.o
__fsym___cmd_cat_desc                             build/kernel/components/finsh/msh_file.o
__fsym___cmd_cat_name                             build/kernel/components/finsh/msh_file.o
__fsym___cmd_cd                                   build/kernel/components/finsh/msh_file.o
__fsym___cmd_cd_desc                              build/kernel/components/finsh/msh_file.o
__fsym___cmd_cd_name                              build/kernel/components/finsh/msh_file.o
__fsym___cmd_clear                                build/kernel/components/finsh/cmd.o
__fsym___cmd_clear_desc                           build/kernel/components/finsh/cmd.o
__fsym___cmd_clear_name                           build/kernel/components/finsh/cmd.o
__fsym___cmd_cp                                   build/kernel/components/finsh/msh_file.o
__fsym___cmd_cp_desc                              build/kernel/components/finsh/msh_file.o
__fsym___cmd_cp_name                              build/kernel/components/finsh/msh_file.o
__fsym___cmd_df                                   build/kernel/components/finsh/msh_file.o
__fsym___cmd_df_desc                              build/kernel/components/finsh/msh_file.o
__fsym___cmd_df_name                              build/kernel/components/finsh/msh_file.o
__fsym___cmd_echo                                 build/kernel/components/finsh/msh_file.o
__fsym___cmd_echo_desc                            build/kernel/components/finsh/msh_file.o
__fsym___cmd_echo_name                            build/kernel/components/finsh/msh_file.o
__fsym___cmd_free                                 build/kernel/components/finsh/msh.o
__fsym___cmd_free_desc                            build/kernel/components/finsh/msh.o
__fsym___cmd_free_name                            build/kernel/components/finsh/msh.o
__fsym___cmd_help                                 build/kernel/components/finsh/msh.o
__fsym___cmd_help_desc                            build/kernel/components/finsh/msh.o
__fsym___cmd_help_name                            build/kernel/components/finsh/msh.o
__fsym___cmd_list_device                          build/kernel/components/finsh/cmd.o
__fsym___cmd_list_device_desc                     build/kernel/components/finsh/cmd.o
__fsym___cmd_list_device_name                     build/kernel/components/finsh/cmd.o
__fsym___cmd_list_event                           build/kernel/components/finsh/cmd.o
__fsym___cmd_list_event_desc                      build/kernel/components/finsh/cmd.o
__fsym___cmd_list_event_name                      build/kernel/components/finsh/cmd.o
__fsym___cmd_list_fd                              build/kernel/components/dfs/src/dfs.o
__fsym___cmd_list_fd_desc                         build/kernel/components/dfs/src/dfs.o
__fsym___cmd_list_fd_name                         build/kernel/components/dfs/src/dfs.o
__fsym___cmd_list_mailbox                         build/kernel/components/finsh/cmd.o
__fsym___cmd_list_mailbox_desc                    build/kernel/components/finsh/cmd.o
__fsym___cmd_list_mailbox_name                    build/kernel/components/finsh/cmd.o
__fsym___cmd_list_mempool                         build/kernel/components/finsh/cmd.o
__fsym___cmd_list_mempool_desc                    build/kernel/components/finsh/cmd.o
__fsym___cmd_list_mempool_name                    build/kernel/components/finsh/cmd.o
__fsym___cmd_list_msgqueue                        build/kernel/components/finsh/cmd.o
__fsym___cmd_list_msgqueue_desc                   build/kernel/components/finsh/cmd.o
__fsym___cmd_list_msgqueue_name                   build/kernel/components/finsh/cmd.o
__fsym___cmd_list_mutex                           build/kernel/components/finsh/cmd.o
__fsym___cmd_list_mutex_desc                      build/kernel/components/finsh/cmd.o
__fsym___cmd_list_mutex_name                      build/kernel/components/finsh/cmd.o
__fsym___cmd_list_sem                             build/kernel/components/finsh/cmd.o
__fsym___cmd_list_sem_desc                        build/kernel/components/finsh/cmd.o
__fsym___cmd_list_sem_name                        build/kernel/components/finsh/cmd.o
__fsym___cmd_list_thread                          build/kernel/components/finsh/cmd.o
__fsym___cmd_list_thread_desc                     build/kernel/components/finsh/cmd.o
__fsym___cmd_list_thread_name                     build/kernel/components/finsh/cmd.o
__fsym___cmd_list_timer                           build/kernel/components/finsh/cmd.o
__fsym___cmd_list_timer_desc                      build/kernel/components/finsh/cmd.o
__fsym___cmd_list_timer_name                      build/kernel/components/finsh/cmd.o
__fsym___cmd_ls                                   build/kernel/components/finsh/msh_file.o
__fsym___cmd_ls_desc                              build/kernel/components/finsh/msh_file.o
__fsym___cmd_ls_name                              build/kernel/components/finsh/msh_file.o
__fsym___cmd_memcheck                             build/kernel/src/mem.o
__fsym___cmd_memcheck_desc                        build/kernel/src/mem.o
__fsym___cmd_memcheck_name                        build/kernel/src/mem.o
__fsym___cmd_memtrace                             build/kernel/src/mem.o
__fsym___cmd_memtrace_desc                        build/kernel/src/mem.o
__fsym___cmd_memtrace_name                        build/kernel/src/mem.o
__fsym___cmd_mkdir                                build/kernel/components/finsh/msh_file.o
__fsym___cmd_mkdir_desc                           build/kernel/components/finsh/msh_file.o
__fsym___cmd_mkdir_name                           build/kernel/components/finsh/msh_file.o
__fsym___cmd_mkfs                                 build/kernel/components/finsh/msh_file.o
__fsym___cmd_mkfs_desc                            build/kernel/components/finsh/msh_file.o
__fsym___cmd_mkfs_name                            build/kernel/components/finsh/msh_file.o
__fsym___cmd_mount                                build/kernel/components/finsh/msh_file.o
__fsym___cmd_mount_desc                           build/kernel/components/finsh/msh_file.o
__fsym___cmd_mount_name                           build/kernel/components/finsh/msh_file.o
__fsym___cmd_mv                                   build/kernel/components/finsh/msh_file.o
__fsym___cmd_mv_desc                              build/kernel/components/finsh/msh_file.o
__fsym___cmd_mv_name                              build/kernel/components/finsh/msh_file.o
__fsym___cmd_ps                                   build/kernel/components/finsh/msh.o
__fsym___cmd_ps_desc                              build/kernel/components/finsh/msh.o
__fsym___cmd_ps_name                              build/kernel/components/finsh/msh.o
__fsym___cmd_pwd                                  build/kernel/components/finsh/msh_file.o
__fsym___cmd_pwd_desc                             build/kernel/components/finsh/msh_file.o
__fsym___cmd_pwd_name                             build/kernel/components/finsh/msh_file.o
__fsym___cmd_reboot                               build/driver/board.o
__fsym___cmd_reboot_desc                          build/driver/board.o
__fsym___cmd_reboot_name                          build/driver/board.o
__fsym___cmd_rm                                   build/kernel/components/finsh/msh_file.o
__fsym___cmd_rm_desc                              build/kernel/components/finsh/msh_file.o
__fsym___cmd_rm_name                              build/kernel/components/finsh/msh_file.o
__fsym___cmd_tail                                 build/kernel/components/finsh/msh_file.o
__fsym___cmd_tail_desc                            build/kernel/components/finsh/msh_file.o
__fsym___cmd_tail_name                            build/kernel/components/finsh/msh_file.o
__fsym___cmd_umount                               build/kernel/components/finsh/msh_file.o
__fsym___cmd_umount_desc                          build/kernel/components/finsh/msh_file.o
__fsym___cmd_umount_name                          build/kernel/components/finsh/msh_file.o
__fsym___cmd_version                              build/kernel/components/finsh/cmd.o
__fsym___cmd_version_desc                         build/kernel/components/finsh/cmd.o
__fsym___cmd_version_name                         build/kernel/components/finsh/cmd.o
__fsym_cat                                        build/kernel/components/dfs/src/dfs_file.o
__fsym_cat_desc                                   build/kernel/components/dfs/src/dfs_file.o
__fsym_cat_name                                   build/kernel/components/dfs/src/dfs_file.o
__fsym_cd                                         build/kernel/components/dfs/src/dfs_posix.o
__fsym_cd_desc                                    build/kernel/components/dfs/src/dfs_posix.o
__fsym_cd_name                                    build/kernel/components/dfs/src/dfs_posix.o
__fsym_clear                                      build/kernel/components/finsh/cmd.o
__fsym_clear_desc                                 build/kernel/components/finsh/cmd.o
__fsym_clear_name                                 build/kernel/components/finsh/cmd.o
__fsym_copy                                       build/kernel/components/dfs/src/dfs_file.o
__fsym_copy_desc                                  build/kernel/components/dfs/src/dfs_file.o
__fsym_copy_name                                  build/kernel/components/dfs/src/dfs_file.o
__fsym_df                                         build/kernel/components/dfs/src/dfs_fs.o
__fsym_df_desc                                    build/kernel/components/dfs/src/dfs_fs.o
__fsym_df_name                                    build/kernel/components/dfs/src/dfs_fs.o
__fsym_hello                                      build/kernel/components/finsh/cmd.o
__fsym_hello_desc                                 build/kernel/components/finsh/cmd.o
__fsym_hello_name                                 build/kernel/components/finsh/cmd.o
__fsym_list                                       build/kernel/components/finsh/cmd.o
__fsym_list_desc                                  build/kernel/components/finsh/cmd.o
__fsym_list_device                                build/kernel/components/finsh/cmd.o
__fsym_list_device_desc                           build/kernel/components/finsh/cmd.o
__fsym_list_device_name                           build/kernel/components/finsh/cmd.o
__fsym_list_event                                 build/kernel/components/finsh/cmd.o
__fsym_list_event_desc                            build/kernel/components/finsh/cmd.o
__fsym_list_event_name                            build/kernel/components/finsh/cmd.o
__fsym_list_mailbox                               build/kernel/components/finsh/cmd.o
__fsym_list_mailbox_desc                          build/kernel/components/finsh/cmd.o
__fsym_list_mailbox_name                          build/kernel/components/finsh/cmd.o
__fsym_list_mem                                   build/kernel/src/mem.o
__fsym_list_mem_desc                              build/kernel/src/mem.o
__fsym_list_mem_name                              build/kernel/src/mem.o
__fsym_list_mempool                               build/kernel/components/finsh/cmd.o
__fsym_list_mempool_desc                          build/kernel/components/finsh/cmd.o
__fsym_list_mempool_name                          build/kernel/components/finsh/cmd.o
__fsym_list_msgqueue                              build/kernel/components/finsh/cmd.o
__fsym_list_msgqueue_desc                         build/kernel/components/finsh/cmd.o
__fsym_list_msgqueue_name                         build/kernel/components/finsh/cmd.o
__fsym_list_mutex                                 build/kernel/components/finsh/cmd.o
__fsym_list_mutex_desc                            build/kernel/components/finsh/cmd.o
__fsym_list_mutex_name                            build/kernel/components/finsh/cmd.o
__fsym_list_name                                  build/kernel/components/finsh/cmd.o
__fsym_list_sem                                   build/kernel/components/finsh/cmd.o
__fsym_list_sem_desc                              build/kernel/components/finsh/cmd.o
__fsym_list_sem_name                              build/kernel/components/finsh/cmd.o
__fsym_list_thread                                build/kernel/components/finsh/cmd.o
__fsym_list_thread_desc                           build/kernel/components/finsh/cmd.o
__fsym_list_thread_name                           build/kernel/components/finsh/cmd.o
__fsym_list_timer                                 build/kernel/components/finsh/cmd.o
__fsym_list_timer_desc                            build/kernel/components/finsh/cmd.o
__fsym_list_timer_name                            build/kernel/components/finsh/cmd.o
__fsym_ls                                         build/kernel/components/dfs/src/dfs_file.o
__fsym_ls_desc                                    build/kernel/components/dfs/src/dfs_file.o
__fsym_ls_name                                    build/kernel/components/dfs/src/dfs_file.o
__fsym_mkdir                                      build/kernel/components/dfs/src/dfs_posix.o
__fsym_mkdir_desc                                 build/kernel/components/dfs/src/dfs_posix.o
__fsym_mkdir_name                                 build/kernel/components/dfs/src/dfs_posix.o
__fsym_mkfs                                       build/kernel/components/dfs/src/dfs_fs.o
__fsym_mkfs_desc                                  build/kernel/components/dfs/src/dfs_fs.o
__fsym_mkfs_name                                  build/kernel/components/dfs/src/dfs_fs.o
__fsym_pinGet                                     build/kernel/components/drivers/misc/pin.o
__fsym_pinGet_desc                                build/kernel/components/drivers/misc/pin.o
__fsym_pinGet_name                                build/kernel/components/drivers/misc/pin.o
__fsym_pinMode                                    build/kernel/components/drivers/misc/pin.o
__fsym_pinMode_desc                               build/kernel/components/drivers/misc/pin.o
__fsym_pinMode_name                               build/kernel/components/drivers/misc/pin.o
__fsym_pinRead                                    build/kernel/components/drivers/misc/pin.o
__fsym_pinRead_desc                               build/kernel/components/drivers/misc/pin.o
__fsym_pinRead_name                               build/kernel/components/drivers/misc/pin.o
__fsym_pinWrite                                   build/kernel/components/drivers/misc/pin.o
__fsym_pinWrite_desc                              build/kernel/components/drivers/misc/pin.o
__fsym_pinWrite_name                              build/kernel/components/drivers/misc/pin.o
__fsym_rm                                         build/kernel/components/dfs/src/dfs_file.o
__fsym_rm_desc                                    build/kernel/components/dfs/src/dfs_file.o
__fsym_rm_name                                    build/kernel/components/dfs/src/dfs_file.o
__fsym_version                                    build/kernel/components/finsh/cmd.o
__fsym_version_desc                               build/kernel/components/finsh/cmd.o
__fsym_version_name                               build/kernel/components/finsh/cmd.o
__fsymtab_end                                     build/kernel/components/finsh/shell.o
__fsymtab_start                                   build/kernel/components/finsh/shell.o
__global_pointer$                                 /home/ddddddd/my_learn/cpu_relative/prog/src/rtthread/libcpu/risc-v/virt64/startup_gcc.o
                                                  /home/ddddddd/my_learn/cpu_relative/prog/src/rtthread/libcpu/risc-v/virt64/cpuport.o
__lowest_bit_bitmap                               build/kernel/src/kservice.o
__moddi3                                          /home/ddddddd/my_learn/cpu_relative/prog/src/rtthread/libcpu/risc-v/virt64/div.o
                                                  build/kernel/src/clock.o
                                                  build/kernel/src/fixpoint.o
__modsi3                                          /home/ddddddd/my_learn/cpu_relative/prog/src/rtthread/libcpu/risc-v/virt64/div.o
__muldi3                                          /home/ddddddd/my_learn/cpu_relative/prog/src/rtthread/libcpu/risc-v/virt64/muldi3.o
                                                  build/kernel/components/dfs/src/dfs_fs.o
                                                  build/kernel/src/mempool.o
                                                  build/kernel/src/ipc.o
                                                  build/kernel/src/fixpoint.o
                                                  build/kernel/src/mem.o
                                                  build/applications/pid_alg.o
__rt_ffs                                          build/kernel/src/kservice.o
                                                  build/kernel/src/scheduler.o
__rt_init_dfs_init                                build/kernel/components/dfs/src/dfs.o
__rt_init_dfs_romfs_init                          build/kernel/components/dfs/filesystems/romfs/dfs_romfs.o
__rt_init_finsh_system_init                       build/kernel/components/finsh/shell.o
__rt_init_rti_board_end                           build/kernel/src/components.o
__rt_init_rti_board_start                         build/kernel/src/components.o
__rt_init_rti_end                                 build/kernel/src/components.o
__rt_init_rti_start                               build/kernel/src/components.o
__stack_start__                                   /home/ddddddd/my_learn/cpu_relative/prog/src/rtthread/libcpu/risc-v/virt64/interrupt_gcc.o
                                                  /home/ddddddd/my_learn/cpu_relative/prog/src/rtthread/libcpu/risc-v/virt64/startup_gcc.o
__udivdi3                                         /home/ddddddd/my_learn/cpu_relative/prog/src/rtthread/libcpu/risc-v/virt64/div.o
                                                  build/kernel/components/dfs/filesystems/romfs/dfs_romfs.o
                                                  build/kernel/components/dfs/filesystems/devfs/devfs.o
                                                  build/kernel/components/finsh/cmd.o
                                                  build/kernel/src/mempool.o
                                                  build/kernel/src/ipc.o
                                                  build/kernel/src/clock.o
                                                  build/kernel/src/fixpoint.o
                                                  build/kernel/src/kservice.o
__udivsi3                                         /home/ddddddd/my_learn/cpu_relative/prog/src/rtthread/libcpu/risc-v/virt64/div.o
__umoddi3                                         /home/ddddddd/my_learn/cpu_relative/prog/src/rtthread/libcpu/risc-v/virt64/div.o
                                                  build/kernel/components/drivers/serial/serial.o
                                                  build/kernel/src/fixpoint.o
                                                  build/kernel/src/kservice.o
__umodsi3                                         /home/ddddddd/my_learn/cpu_relative/prog/src/rtthread/libcpu/risc-v/virt64/div.o
__vsymtab_end                                     build/kernel/components/finsh/shell.o
__vsymtab_start                                   build/kernel/components/finsh/shell.o
__wqueue_default_wake                             build/kernel/components/drivers/src/waitqueue.o
_root_dirent                                      build/kernel/components/dfs/filesystems/romfs/romfs.o
_rt_errno                                         build/kernel/src/kservice.o
_start                                            /home/ddddddd/my_learn/cpu_relative/prog/src/rtthread/libcpu/risc-v/virt64/startup_gcc.o
_syscall_table_begin                              build/kernel/components/finsh/shell.o
                                                  build/kernel/components/finsh/msh.o
                                                  build/kernel/components/finsh/cmd.o
_syscall_table_end                                build/kernel/components/finsh/shell.o
                                                  build/kernel/components/finsh/msh.o
                                                  build/kernel/components/finsh/cmd.o
_sysvar_table_begin                               build/kernel/components/finsh/shell.o
_sysvar_table_end                                 build/kernel/components/finsh/shell.o
_uart_ops                                         build/driver/drv_uart.o
access                                            build/kernel/components/dfs/src/dfs_posix.o
atoi                                              build/driver/lib/stdlib.o
                                                  build/kernel/components/finsh/msh_file.o
cat                                               build/kernel/components/dfs/src/dfs_file.o
                                                  build/kernel/components/finsh/msh_file.o
chdir                                             build/kernel/components/dfs/src/dfs_posix.o
                                                  build/kernel/components/finsh/msh_file.o
close                                             build/kernel/components/dfs/src/dfs_posix.o
                                                  build/kernel/components/finsh/msh_file.o
closedir                                          build/kernel/components/dfs/src/dfs_posix.o
                                                  build/kernel/components/finsh/msh.o
                                                  build/kernel/components/finsh/msh_file.o
cmd_free                                          build/kernel/components/finsh/msh.o
cmd_ps                                            build/kernel/components/finsh/msh.o
copy                                              build/kernel/components/dfs/src/dfs_file.o
                                                  build/kernel/components/finsh/msh_file.o
devfs_init                                        build/kernel/components/dfs/filesystems/devfs/devfs.o
                                                  build/kernel/components/dfs/src/dfs.o
df                                                build/kernel/components/dfs/src/dfs_fs.o
                                                  build/kernel/components/finsh/msh_file.o
dfs_device_fs_close                               build/kernel/components/dfs/filesystems/devfs/devfs.o
dfs_device_fs_getdents                            build/kernel/components/dfs/filesystems/devfs/devfs.o
dfs_device_fs_ioctl                               build/kernel/components/dfs/filesystems/devfs/devfs.o
dfs_device_fs_mount                               build/kernel/components/dfs/filesystems/devfs/devfs.o
dfs_device_fs_open                                build/kernel/components/dfs/filesystems/devfs/devfs.o
dfs_device_fs_read                                build/kernel/components/dfs/filesystems/devfs/devfs.o
dfs_device_fs_stat                                build/kernel/components/dfs/filesystems/devfs/devfs.o
dfs_device_fs_write                               build/kernel/components/dfs/filesystems/devfs/devfs.o
dfs_fdtable_get                                   build/kernel/components/dfs/src/dfs.o
dfs_file_close                                    build/kernel/components/dfs/src/dfs_file.o
                                                  build/kernel/components/dfs/src/dfs_posix.o
                                                  build/kernel/components/dfs/src/dfs_fs.o
dfs_file_flush                                    build/kernel/components/dfs/src/dfs_file.o
                                                  build/kernel/components/dfs/src/dfs_posix.o
dfs_file_ftruncate                                build/kernel/components/dfs/src/dfs_file.o
                                                  build/kernel/components/dfs/src/dfs_posix.o
dfs_file_getdents                                 build/kernel/components/dfs/src/dfs_file.o
                                                  build/kernel/components/dfs/src/dfs_posix.o
dfs_file_ioctl                                    build/kernel/components/dfs/src/dfs_file.o
                                                  build/kernel/components/dfs/src/dfs_posix.o
dfs_file_lseek                                    build/kernel/components/dfs/src/dfs_file.o
                                                  build/kernel/components/dfs/src/dfs_posix.o
dfs_file_open                                     build/kernel/components/dfs/src/dfs_file.o
                                                  build/kernel/components/dfs/src/dfs_posix.o
                                                  build/kernel/components/dfs/src/dfs_fs.o
dfs_file_read                                     build/kernel/components/dfs/src/dfs_file.o
                                                  build/kernel/components/dfs/src/dfs_posix.o
dfs_file_rename                                   build/kernel/components/dfs/src/dfs_file.o
                                                  build/kernel/components/dfs/src/dfs_posix.o
dfs_file_stat                                     build/kernel/components/dfs/src/dfs_file.o
                                                  build/kernel/components/dfs/src/dfs_posix.o
dfs_file_unlink                                   build/kernel/components/dfs/src/dfs_file.o
                                                  build/kernel/components/dfs/src/dfs_posix.o
dfs_file_write                                    build/kernel/components/dfs/src/dfs_file.o
                                                  build/kernel/components/dfs/src/dfs_posix.o
dfs_filesystem_get_mounted_path                   build/kernel/components/dfs/src/dfs_fs.o
dfs_filesystem_get_partition                      build/kernel/components/dfs/src/dfs_fs.o
dfs_filesystem_lookup                             build/kernel/components/dfs/src/dfs_fs.o
                                                  build/kernel/components/dfs/src/dfs_file.o
                                                  build/kernel/components/dfs/src/dfs.o
dfs_init                                          build/kernel/components/dfs/src/dfs.o
dfs_lock                                          build/kernel/components/dfs/src/dfs.o
                                                  build/kernel/components/dfs/src/dfs_posix.o
                                                  build/kernel/components/dfs/src/dfs_fs.o
dfs_mkfs                                          build/kernel/components/dfs/src/dfs_fs.o
                                                  build/kernel/components/finsh/msh_file.o
dfs_mount                                         build/kernel/components/dfs/src/dfs_fs.o
                                                  build/kernel/components/dfs/src/dfs.o
                                                  build/kernel/components/finsh/msh_file.o
dfs_normalize_path                                build/kernel/components/dfs/src/dfs.o
                                                  build/kernel/components/dfs/src/dfs_file.o
                                                  build/kernel/components/dfs/src/dfs_posix.o
                                                  build/kernel/components/dfs/src/dfs_fs.o
dfs_register                                      build/kernel/components/dfs/src/dfs_fs.o
                                                  build/kernel/components/dfs/filesystems/romfs/dfs_romfs.o
                                                  build/kernel/components/dfs/filesystems/devfs/devfs.o
dfs_romfs_close                                   build/kernel/components/dfs/filesystems/romfs/dfs_romfs.o
dfs_romfs_getdents                                build/kernel/components/dfs/filesystems/romfs/dfs_romfs.o
dfs_romfs_init                                    build/kernel/components/dfs/filesystems/romfs/dfs_romfs.o
dfs_romfs_ioctl                                   build/kernel/components/dfs/filesystems/romfs/dfs_romfs.o
dfs_romfs_lookup                                  build/kernel/components/dfs/filesystems/romfs/dfs_romfs.o
dfs_romfs_lseek                                   build/kernel/components/dfs/filesystems/romfs/dfs_romfs.o
dfs_romfs_mount                                   build/kernel/components/dfs/filesystems/romfs/dfs_romfs.o
dfs_romfs_open                                    build/kernel/components/dfs/filesystems/romfs/dfs_romfs.o
dfs_romfs_read                                    build/kernel/components/dfs/filesystems/romfs/dfs_romfs.o
dfs_romfs_stat                                    build/kernel/components/dfs/filesystems/romfs/dfs_romfs.o
dfs_romfs_unmount                                 build/kernel/components/dfs/filesystems/romfs/dfs_romfs.o
dfs_statfs                                        build/kernel/components/dfs/src/dfs_fs.o
                                                  build/kernel/components/dfs/src/dfs_posix.o
dfs_subdir                                        build/kernel/components/dfs/src/dfs.o
                                                  build/kernel/components/dfs/src/dfs_file.o
dfs_unlock                                        build/kernel/components/dfs/src/dfs.o
                                                  build/kernel/components/dfs/src/dfs_posix.o
                                                  build/kernel/components/dfs/src/dfs_fs.o
dfs_unmount                                       build/kernel/components/dfs/src/dfs_fs.o
                                                  build/kernel/components/finsh/msh_file.o
dump_regs                                         /home/ddddddd/my_learn/cpu_relative/prog/src/rtthread/libcpu/risc-v/virt64/interrupt.o
entry                                             build/kernel/src/components.o
                                                  build/driver/board.o
fcntl                                             build/kernel/components/dfs/src/dfs_posix.o
fd_get                                            build/kernel/components/dfs/src/dfs.o
                                                  build/kernel/components/dfs/src/dfs_posix.o
fd_is_open                                        build/kernel/components/dfs/src/dfs.o
                                                  build/kernel/components/dfs/src/dfs_file.o
fd_new                                            build/kernel/components/dfs/src/dfs.o
                                                  build/kernel/components/dfs/src/dfs_posix.o
fd_put                                            build/kernel/components/dfs/src/dfs.o
                                                  build/kernel/components/dfs/src/dfs_posix.o
filesystem_operation_table                        build/kernel/components/dfs/src/dfs.o
                                                  build/kernel/components/dfs/src/dfs_fs.o
filesystem_table                                  build/kernel/components/dfs/src/dfs.o
                                                  build/kernel/components/dfs/src/dfs_fs.o
                                                  build/kernel/components/finsh/msh_file.o
finsh_get_device                                  build/kernel/components/finsh/shell.o
finsh_get_echo                                    build/kernel/components/finsh/shell.o
finsh_get_prompt                                  build/kernel/components/finsh/shell.o
finsh_get_prompt_mode                             build/kernel/components/finsh/shell.o
finsh_set_device                                  build/kernel/components/finsh/shell.o
finsh_set_echo                                    build/kernel/components/finsh/shell.o
finsh_set_prompt                                  build/kernel/components/finsh/shell.o
finsh_set_prompt_mode                             build/kernel/components/finsh/shell.o
finsh_system_function_init                        build/kernel/components/finsh/shell.o
finsh_system_init                                 build/kernel/components/finsh/shell.o
finsh_system_var_init                             build/kernel/components/finsh/shell.o
finsh_thread_entry                                build/kernel/components/finsh/shell.o
fixedpt_exp                                       build/kernel/src/fixpoint.o
fixedpt_ln                                        build/kernel/src/fixpoint.o
fixedpt_sin                                       build/kernel/src/fixpoint.o
fixedpt_sqrt                                      build/kernel/src/fixpoint.o
fixedpt_str                                       build/kernel/src/fixpoint.o
                                                  build/applications/motor_periph.o
fstat                                             build/kernel/components/dfs/src/dfs_posix.o
fsync                                             build/kernel/components/dfs/src/dfs_posix.o
ftruncate                                         build/kernel/components/dfs/src/dfs_posix.o
get_thread_kernel_stack_top                       /home/ddddddd/my_learn/cpu_relative/prog/src/rtthread/libcpu/risc-v/virt64/cpuport.o
getcwd                                            build/kernel/components/dfs/src/dfs_posix.o
                                                  build/kernel/components/finsh/msh.o
                                                  build/kernel/components/finsh/shell.o
handle_trap                                       /home/ddddddd/my_learn/cpu_relative/prog/src/rtthread/libcpu/risc-v/virt64/interrupt.o
                                                  /home/ddddddd/my_learn/cpu_relative/prog/src/rtthread/libcpu/risc-v/virt64/interrupt_gcc.o
hello                                             build/kernel/components/finsh/cmd.o
hw_uart_init                                      build/applications/uart_util.o
ioctl                                             build/kernel/components/dfs/src/dfs_posix.o
list                                              build/kernel/components/finsh/cmd.o
list_device                                       build/kernel/components/finsh/cmd.o
list_event                                        build/kernel/components/finsh/cmd.o
list_fd                                           build/kernel/components/dfs/src/dfs.o
list_mailbox                                      build/kernel/components/finsh/cmd.o
list_mem                                          build/kernel/src/mem.o
                                                  build/kernel/components/finsh/msh.o
list_mempool                                      build/kernel/components/finsh/cmd.o
list_msgqueue                                     build/kernel/components/finsh/cmd.o
list_mutex                                        build/kernel/components/finsh/cmd.o
list_sem                                          build/kernel/components/finsh/cmd.o
list_thread                                       build/kernel/components/finsh/cmd.o
                                                  build/kernel/components/finsh/msh.o
                                                  /home/ddddddd/my_learn/cpu_relative/prog/src/rtthread/libcpu/risc-v/virt64/interrupt.o
list_timer                                        build/kernel/components/finsh/cmd.o
ls                                                build/kernel/components/dfs/src/dfs_file.o
                                                  build/kernel/components/finsh/msh_file.o
lseek                                             build/kernel/components/dfs/src/dfs_posix.o
                                                  build/kernel/components/finsh/msh_file.o
main                                              build/applications/main.o
                                                  build/kernel/src/components.o
main_thread_entry                                 build/kernel/src/components.o
memcheck                                          build/kernel/src/mem.o
memcmp                                            build/driver/lib/string.o
                                                  build/kernel/components/finsh/shell.o
memcpy                                            build/driver/lib/string.o
                                                  build/kernel/components/drivers/src/ringbuffer.o
                                                  build/kernel/components/dfs/filesystems/romfs/dfs_romfs.o
                                                  build/kernel/components/finsh/msh.o
                                                  build/kernel/components/finsh/msh_file.o
                                                  build/kernel/components/finsh/shell.o
                                                  build/kernel/components/finsh/cmd.o
                                                  build/applications/motor_periph.o
memmove                                           build/driver/lib/string.o
memset                                            build/driver/lib/string.o
                                                  build/kernel/components/dfs/src/dfs_file.o
                                                  build/kernel/components/dfs/src/dfs.o
                                                  build/kernel/components/dfs/src/dfs_posix.o
                                                  build/kernel/components/dfs/src/dfs_fs.o
                                                  build/kernel/components/finsh/msh.o
                                                  build/kernel/components/finsh/shell.o
memtrace                                          build/kernel/src/mem.o
mkdir                                             build/kernel/components/dfs/src/dfs_posix.o
                                                  build/kernel/components/dfs/src/dfs_file.o
                                                  build/kernel/components/finsh/msh_file.o
mkfs                                              build/kernel/components/dfs/src/dfs_fs.o
msh_auto_complete                                 build/kernel/components/finsh/msh.o
                                                  build/kernel/components/finsh/shell.o
msh_auto_complete_path                            build/kernel/components/finsh/msh.o
msh_exec                                          build/kernel/components/finsh/msh.o
                                                  build/kernel/components/finsh/msh_file.o
                                                  build/kernel/components/finsh/shell.o
msh_exec_script                                   build/kernel/components/finsh/msh_file.o
                                                  build/kernel/components/finsh/msh.o
msh_help                                          build/kernel/components/finsh/msh.o
msh_is_used                                       build/kernel/components/finsh/msh.o
                                                  build/kernel/components/finsh/shell.o
open                                              build/kernel/components/dfs/src/dfs_posix.o
                                                  build/kernel/components/finsh/msh_file.o
opendir                                           build/kernel/components/dfs/src/dfs_posix.o
                                                  build/kernel/components/finsh/msh.o
                                                  build/kernel/components/finsh/msh_file.o
plic_claim                                        build/driver/plic.o
                                                  /home/ddddddd/my_learn/cpu_relative/prog/src/rtthread/libcpu/risc-v/virt64/interrupt.o
plic_complete                                     build/driver/plic.o
                                                  /home/ddddddd/my_learn/cpu_relative/prog/src/rtthread/libcpu/risc-v/virt64/interrupt.o
plic_irq_disable                                  build/driver/plic.o
                                                  /home/ddddddd/my_learn/cpu_relative/prog/src/rtthread/libcpu/risc-v/virt64/interrupt.o
plic_irq_enable                                   build/driver/plic.o
                                                  /home/ddddddd/my_learn/cpu_relative/prog/src/rtthread/libcpu/risc-v/virt64/interrupt.o
plic_irq_handle                                   /home/ddddddd/my_learn/cpu_relative/prog/src/rtthread/libcpu/risc-v/virt64/interrupt.o
plic_set_priority                                 build/driver/plic.o
                                                  /home/ddddddd/my_learn/cpu_relative/prog/src/rtthread/libcpu/risc-v/virt64/interrupt.o
plic_set_threshold                                build/driver/plic.o
                                                  /home/ddddddd/my_learn/cpu_relative/prog/src/rtthread/libcpu/risc-v/virt64/interrupt.o
primary_cpu_entry                                 build/driver/board.o
                                                  /home/ddddddd/my_learn/cpu_relative/prog/src/rtthread/libcpu/risc-v/virt64/startup_gcc.o
read                                              build/kernel/components/dfs/src/dfs_posix.o
                                                  build/kernel/components/finsh/msh_file.o
readdir                                           build/kernel/components/dfs/src/dfs_posix.o
                                                  build/kernel/components/finsh/msh.o
                                                  build/kernel/components/finsh/msh_file.o
rename                                            build/kernel/components/dfs/src/dfs_posix.o
                                                  build/kernel/components/finsh/msh_file.o
rewinddir                                         build/kernel/components/dfs/src/dfs_posix.o
                                                  build/kernel/components/finsh/msh.o
rm                                                build/kernel/components/dfs/src/dfs_file.o
rmdir                                             build/kernel/components/dfs/src/dfs_posix.o
romfs_root                                        build/kernel/components/dfs/filesystems/romfs/romfs.o
rt_application_init                               build/kernel/src/components.o
rt_assert_handler                                 build/kernel/src/kservice.o
                                                  build/kernel/components/drivers/misc/pin.o
                                                  build/kernel/components/drivers/src/dataqueue.o
                                                  build/kernel/components/drivers/src/ringbuffer.o
                                                  build/kernel/components/drivers/src/ringblk_buf.o
                                                  build/kernel/components/drivers/src/completion.o
                                                  build/kernel/components/drivers/src/workqueue.o
                                                  build/kernel/components/drivers/src/pipe.o
                                                  build/kernel/components/drivers/src/waitqueue.o
                                                  build/kernel/components/drivers/serial/serial.o
                                                  build/kernel/components/dfs/filesystems/romfs/dfs_romfs.o
                                                  build/kernel/components/dfs/filesystems/devfs/devfs.o
                                                  build/kernel/components/dfs/src/dfs.o
                                                  build/kernel/components/dfs/src/dfs_fs.o
                                                  build/kernel/components/finsh/shell.o
                                                  /home/ddddddd/my_learn/cpu_relative/prog/src/rtthread/libcpu/risc-v/virt64/cpuport.o
                                                  build/kernel/src/idle.o
                                                  build/kernel/src/mempool.o
                                                  build/kernel/src/ipc.o
                                                  build/kernel/src/timer.o
                                                  build/kernel/src/scheduler.o
                                                  build/kernel/src/components.o
                                                  build/kernel/src/object.o
                                                  build/kernel/src/thread.o
                                                  build/kernel/src/mem.o
                                                  build/kernel/src/device.o
                                                  build/driver/sbi.o
                                                  build/driver/drv_uart.o
                                                  build/applications/uart_util.o
rt_assert_hook                                    build/kernel/src/kservice.o
rt_assert_set_hook                                build/kernel/src/kservice.o
rt_calloc                                         build/kernel/src/mem.o
                                                  build/kernel/components/dfs/src/dfs.o
                                                  build/kernel/components/finsh/shell.o
rt_completion_done                                build/kernel/components/drivers/src/completion.o
                                                  build/kernel/components/drivers/serial/serial.o
rt_completion_init                                build/kernel/components/drivers/src/completion.o
                                                  build/kernel/components/drivers/serial/serial.o
rt_completion_wait                                build/kernel/components/drivers/src/completion.o
                                                  build/kernel/components/drivers/serial/serial.o
rt_components_board_init                          build/kernel/src/components.o
                                                  build/driver/board.o
rt_components_init                                build/kernel/src/components.o
rt_console_get_device                             build/kernel/src/kservice.o
                                                  build/kernel/components/finsh/shell.o
rt_console_set_device                             build/kernel/src/kservice.o
                                                  build/driver/board.o
rt_critical_level                                 build/kernel/src/scheduler.o
rt_current_priority                               build/kernel/src/scheduler.o
rt_current_thread                                 build/kernel/src/scheduler.o
                                                  build/kernel/src/thread.o
rt_data_queue_deinit                              build/kernel/components/drivers/src/dataqueue.o
                                                  build/kernel/components/drivers/serial/serial.o
rt_data_queue_init                                build/kernel/components/drivers/src/dataqueue.o
                                                  build/kernel/components/drivers/serial/serial.o
rt_data_queue_len                                 build/kernel/components/drivers/src/dataqueue.o
rt_data_queue_peek                                build/kernel/components/drivers/src/dataqueue.o
                                                  build/kernel/components/drivers/serial/serial.o
rt_data_queue_pop                                 build/kernel/components/drivers/src/dataqueue.o
                                                  build/kernel/components/drivers/serial/serial.o
rt_data_queue_push                                build/kernel/components/drivers/src/dataqueue.o
                                                  build/kernel/components/drivers/serial/serial.o
rt_data_queue_reset                               build/kernel/components/drivers/src/dataqueue.o
rt_delayed_work_init                              build/kernel/components/drivers/src/workqueue.o
rt_device_close                                   build/kernel/src/device.o
                                                  build/kernel/components/dfs/filesystems/devfs/devfs.o
                                                  build/kernel/components/dfs/src/dfs_fs.o
                                                  build/kernel/components/finsh/shell.o
                                                  build/kernel/src/kservice.o
rt_device_control                                 build/kernel/src/device.o
                                                  build/kernel/components/dfs/filesystems/devfs/devfs.o
rt_device_create                                  build/kernel/src/device.o
rt_device_destroy                                 build/kernel/src/device.o
rt_device_find                                    build/kernel/src/device.o
                                                  build/kernel/components/drivers/src/pipe.o
                                                  build/kernel/components/dfs/filesystems/devfs/devfs.o
                                                  build/kernel/components/dfs/src/dfs_fs.o
                                                  build/kernel/components/finsh/shell.o
                                                  build/kernel/src/kservice.o
rt_device_init                                    build/kernel/src/device.o
rt_device_open                                    build/kernel/src/device.o
                                                  build/kernel/components/dfs/filesystems/devfs/devfs.o
                                                  build/kernel/components/dfs/src/dfs_fs.o
                                                  build/kernel/components/finsh/shell.o
                                                  build/kernel/src/kservice.o
rt_device_pin_register                            build/kernel/components/drivers/misc/pin.o
rt_device_read                                    build/kernel/src/device.o
                                                  build/kernel/components/dfs/filesystems/devfs/devfs.o
                                                  build/kernel/components/finsh/shell.o
rt_device_register                                build/kernel/src/device.o
                                                  build/kernel/components/drivers/misc/pin.o
                                                  build/kernel/components/drivers/src/pipe.o
                                                  build/kernel/components/drivers/serial/serial.o
rt_device_set_rx_indicate                         build/kernel/src/device.o
                                                  build/kernel/components/finsh/shell.o
rt_device_set_tx_complete                         build/kernel/src/device.o
rt_device_unregister                              build/kernel/src/device.o
                                                  build/kernel/components/drivers/src/pipe.o
rt_device_write                                   build/kernel/src/device.o
                                                  build/kernel/components/dfs/filesystems/devfs/devfs.o
                                                  build/kernel/src/kservice.o
rt_enter_critical                                 build/kernel/src/scheduler.o
                                                  build/kernel/components/drivers/src/dataqueue.o
                                                  build/kernel/components/drivers/src/workqueue.o
                                                  build/kernel/components/dfs/filesystems/devfs/devfs.o
                                                  build/kernel/components/dfs/src/dfs.o
                                                  build/kernel/src/object.o
rt_event_control                                  build/kernel/src/ipc.o
rt_event_create                                   build/kernel/src/ipc.o
rt_event_delete                                   build/kernel/src/ipc.o
rt_event_detach                                   build/kernel/src/ipc.o
rt_event_init                                     build/kernel/src/ipc.o
rt_event_recv                                     build/kernel/src/ipc.o
rt_event_send                                     build/kernel/src/ipc.o
rt_exit_critical                                  build/kernel/src/scheduler.o
                                                  build/kernel/components/drivers/src/dataqueue.o
                                                  build/kernel/components/drivers/src/workqueue.o
                                                  build/kernel/components/dfs/filesystems/devfs/devfs.o
                                                  build/kernel/components/dfs/src/dfs.o
                                                  build/kernel/src/object.o
rt_free                                           build/kernel/src/mem.o
                                                  build/kernel/components/drivers/src/dataqueue.o
                                                  build/kernel/components/drivers/src/ringbuffer.o
                                                  build/kernel/components/drivers/src/ringblk_buf.o
                                                  build/kernel/components/drivers/src/workqueue.o
                                                  build/kernel/components/drivers/src/pipe.o
                                                  build/kernel/components/drivers/serial/serial.o
                                                  build/kernel/components/dfs/filesystems/devfs/devfs.o
                                                  build/kernel/components/dfs/src/dfs_file.o
                                                  build/kernel/components/dfs/src/dfs.o
                                                  build/kernel/components/dfs/src/dfs_posix.o
                                                  build/kernel/components/dfs/src/dfs_fs.o
                                                  build/kernel/components/finsh/msh.o
                                                  build/kernel/components/finsh/msh_file.o
                                                  build/kernel/components/finsh/shell.o
                                                  build/kernel/src/idle.o
                                                  build/kernel/src/mempool.o
                                                  build/kernel/src/ipc.o
                                                  build/kernel/src/object.o
                                                  build/kernel/src/kservice.o
                                                  build/kernel/src/device.o
rt_free_align                                     build/kernel/src/kservice.o
rt_free_sethook                                   build/kernel/src/mem.o
rt_get_errno                                      build/kernel/src/kservice.o
rt_hw_board_init                                  build/driver/board.o
                                                  build/kernel/src/components.o
rt_hw_clint_ipi_disable                           /home/ddddddd/my_learn/cpu_relative/prog/src/rtthread/libcpu/risc-v/virt64/interrupt.o
rt_hw_clint_ipi_enable                            /home/ddddddd/my_learn/cpu_relative/prog/src/rtthread/libcpu/risc-v/virt64/interrupt.o
rt_hw_console_output                              build/kernel/src/kservice.o
rt_hw_context_switch                              /home/ddddddd/my_learn/cpu_relative/prog/src/rtthread/libcpu/risc-v/virt64/context_gcc.o
                                                  build/kernel/src/scheduler.o
rt_hw_context_switch_exit                         /home/ddddddd/my_learn/cpu_relative/prog/src/rtthread/libcpu/risc-v/virt64/context_gcc.o
                                                  /home/ddddddd/my_learn/cpu_relative/prog/src/rtthread/libcpu/risc-v/virt64/interrupt_gcc.o
rt_hw_context_switch_interrupt                    /home/ddddddd/my_learn/cpu_relative/prog/src/rtthread/libcpu/risc-v/virt64/cpuport.o
                                                  build/kernel/src/scheduler.o
rt_hw_context_switch_to                           /home/ddddddd/my_learn/cpu_relative/prog/src/rtthread/libcpu/risc-v/virt64/context_gcc.o
                                                  build/kernel/src/scheduler.o
rt_hw_cpu_reset                                   build/driver/board.o
rt_hw_cpu_shutdown                                /home/ddddddd/my_learn/cpu_relative/prog/src/rtthread/libcpu/risc-v/virt64/cpuport.o
rt_hw_interrupt_disable                           /home/ddddddd/my_learn/cpu_relative/prog/src/rtthread/libcpu/risc-v/virt64/context_gcc.o
                                                  build/kernel/components/drivers/src/dataqueue.o
                                                  build/kernel/components/drivers/src/ringblk_buf.o
                                                  build/kernel/components/drivers/src/completion.o
                                                  build/kernel/components/drivers/src/workqueue.o
                                                  build/kernel/components/drivers/src/waitqueue.o
                                                  build/kernel/components/drivers/serial/serial.o
                                                  build/kernel/components/finsh/cmd.o
                                                  /home/ddddddd/my_learn/cpu_relative/prog/src/rtthread/libcpu/risc-v/virt64/cpuport.o
                                                  /home/ddddddd/my_learn/cpu_relative/prog/src/rtthread/libcpu/risc-v/virt64/interrupt.o
                                                  build/kernel/src/idle.o
                                                  build/kernel/src/mempool.o
                                                  build/kernel/src/ipc.o
                                                  build/kernel/src/timer.o
                                                  build/kernel/src/irq.o
                                                  build/kernel/src/clock.o
                                                  build/kernel/src/scheduler.o
                                                  build/kernel/src/components.o
                                                  build/kernel/src/object.o
                                                  build/kernel/src/thread.o
                                                  build/kernel/src/mem.o
                                                  build/driver/board.o
rt_hw_interrupt_enable                            /home/ddddddd/my_learn/cpu_relative/prog/src/rtthread/libcpu/risc-v/virt64/context_gcc.o
                                                  build/kernel/components/drivers/src/dataqueue.o
                                                  build/kernel/components/drivers/src/ringblk_buf.o
                                                  build/kernel/components/drivers/src/completion.o
                                                  build/kernel/components/drivers/src/workqueue.o
                                                  build/kernel/components/drivers/src/waitqueue.o
                                                  build/kernel/components/drivers/serial/serial.o
                                                  build/kernel/components/finsh/cmd.o
                                                  /home/ddddddd/my_learn/cpu_relative/prog/src/rtthread/libcpu/risc-v/virt64/interrupt.o
                                                  build/kernel/src/idle.o
                                                  build/kernel/src/mempool.o
                                                  build/kernel/src/ipc.o
                                                  build/kernel/src/timer.o
                                                  build/kernel/src/irq.o
                                                  build/kernel/src/clock.o
                                                  build/kernel/src/scheduler.o
                                                  build/kernel/src/object.o
                                                  build/kernel/src/thread.o
                                                  build/kernel/src/mem.o
rt_hw_interrupt_init                              /home/ddddddd/my_learn/cpu_relative/prog/src/rtthread/libcpu/risc-v/virt64/interrupt.o
                                                  build/driver/board.o
rt_hw_interrupt_install                           /home/ddddddd/my_learn/cpu_relative/prog/src/rtthread/libcpu/risc-v/virt64/interrupt.o
                                                  build/driver/drv_uart.o
                                                  build/applications/uart_util.o
rt_hw_interrupt_mask                              /home/ddddddd/my_learn/cpu_relative/prog/src/rtthread/libcpu/risc-v/virt64/interrupt.o
rt_hw_interrupt_umask                             /home/ddddddd/my_learn/cpu_relative/prog/src/rtthread/libcpu/risc-v/virt64/interrupt.o
                                                  build/driver/drv_uart.o
                                                  build/applications/uart_util.o
rt_hw_plic_irq_disable                            /home/ddddddd/my_learn/cpu_relative/prog/src/rtthread/libcpu/risc-v/virt64/interrupt.o
rt_hw_plic_irq_enable                             /home/ddddddd/my_learn/cpu_relative/prog/src/rtthread/libcpu/risc-v/virt64/interrupt.o
rt_hw_serial_isr                                  build/kernel/components/drivers/serial/serial.o
                                                  build/driver/drv_uart.o
                                                  build/applications/uart_util.o
rt_hw_serial_register                             build/kernel/components/drivers/serial/serial.o
                                                  build/driver/drv_uart.o
                                                  build/applications/uart_util.o
rt_hw_stack_init                                  /home/ddddddd/my_learn/cpu_relative/prog/src/rtthread/libcpu/risc-v/virt64/cpuport.o
                                                  build/kernel/src/thread.o
rt_hw_tick_init                                   /home/ddddddd/my_learn/cpu_relative/prog/src/rtthread/libcpu/risc-v/virt64/tick.o
                                                  build/driver/board.o
rt_hw_uart_init                                   build/driver/drv_uart.o
                                                  build/driver/board.o
rt_interrupt_enter                                build/kernel/src/irq.o
                                                  /home/ddddddd/my_learn/cpu_relative/prog/src/rtthread/libcpu/risc-v/virt64/interrupt_gcc.o
rt_interrupt_enter_sethook                        build/kernel/src/irq.o
rt_interrupt_from_thread                          /home/ddddddd/my_learn/cpu_relative/prog/src/rtthread/libcpu/risc-v/virt64/cpuport.o
                                                  /home/ddddddd/my_learn/cpu_relative/prog/src/rtthread/libcpu/risc-v/virt64/interrupt_gcc.o
rt_interrupt_get_nest                             build/kernel/src/irq.o
                                                  build/kernel/components/drivers/src/dataqueue.o
                                                  build/kernel/components/drivers/src/completion.o
                                                  build/kernel/components/drivers/src/waitqueue.o
                                                  build/kernel/src/idle.o
                                                  build/kernel/src/mempool.o
                                                  build/kernel/src/ipc.o
                                                  build/kernel/src/object.o
                                                  build/kernel/src/kservice.o
                                                  build/kernel/src/mem.o
rt_interrupt_leave                                build/kernel/src/irq.o
                                                  /home/ddddddd/my_learn/cpu_relative/prog/src/rtthread/libcpu/risc-v/virt64/interrupt_gcc.o
rt_interrupt_leave_sethook                        build/kernel/src/irq.o
rt_interrupt_nest                                 build/kernel/src/irq.o
                                                  build/kernel/src/scheduler.o
rt_interrupt_to_thread                            /home/ddddddd/my_learn/cpu_relative/prog/src/rtthread/libcpu/risc-v/virt64/cpuport.o
                                                  /home/ddddddd/my_learn/cpu_relative/prog/src/rtthread/libcpu/risc-v/virt64/interrupt_gcc.o
rt_kprintf                                        build/kernel/src/kservice.o
                                                  build/kernel/components/drivers/src/dataqueue.o
                                                  build/kernel/components/drivers/src/completion.o
                                                  build/kernel/components/drivers/src/waitqueue.o
                                                  build/kernel/components/drivers/serial/serial.o
                                                  build/kernel/components/dfs/src/dfs_file.o
                                                  build/kernel/components/dfs/src/dfs.o
                                                  build/kernel/components/dfs/src/dfs_posix.o
                                                  build/kernel/components/dfs/src/dfs_fs.o
                                                  build/kernel/components/finsh/msh.o
                                                  build/kernel/components/finsh/msh_file.o
                                                  build/kernel/components/finsh/shell.o
                                                  build/kernel/components/finsh/cmd.o
                                                  /home/ddddddd/my_learn/cpu_relative/prog/src/rtthread/libcpu/risc-v/virt64/cpuport.o
                                                  /home/ddddddd/my_learn/cpu_relative/prog/src/rtthread/libcpu/risc-v/virt64/interrupt.o
                                                  build/kernel/src/idle.o
                                                  build/kernel/src/mempool.o
                                                  build/kernel/src/ipc.o
                                                  build/kernel/src/components.o
                                                  build/kernel/src/object.o
                                                  build/kernel/src/thread.o
                                                  build/kernel/src/mem.o
                                                  build/kernel/src/device.o
                                                  build/driver/sbi.o
                                                  build/driver/board.o
                                                  build/driver/plic.o
                                                  build/applications/motor_periph.o
                                                  build/applications/main.o
rt_kputs                                          build/kernel/src/kservice.o
rt_malloc                                         build/kernel/src/mem.o
                                                  build/kernel/components/drivers/src/dataqueue.o
                                                  build/kernel/components/drivers/src/ringbuffer.o
                                                  build/kernel/components/drivers/src/ringblk_buf.o
                                                  build/kernel/components/drivers/src/workqueue.o
                                                  build/kernel/components/drivers/src/pipe.o
                                                  build/kernel/components/drivers/serial/serial.o
                                                  build/kernel/components/dfs/filesystems/devfs/devfs.o
                                                  build/kernel/components/dfs/src/dfs_file.o
                                                  build/kernel/components/dfs/src/dfs.o
                                                  build/kernel/components/dfs/src/dfs_posix.o
                                                  build/kernel/components/finsh/msh.o
                                                  build/kernel/components/finsh/msh_file.o
                                                  build/kernel/components/finsh/shell.o
                                                  build/kernel/src/mempool.o
                                                  build/kernel/src/ipc.o
                                                  build/kernel/src/object.o
                                                  build/kernel/src/kservice.o
                                                  build/kernel/src/thread.o
                                                  build/kernel/src/device.o
rt_malloc_align                                   build/kernel/src/kservice.o
rt_malloc_sethook                                 build/kernel/src/mem.o
rt_mb_control                                     build/kernel/src/ipc.o
rt_mb_create                                      build/kernel/src/ipc.o
rt_mb_delete                                      build/kernel/src/ipc.o
rt_mb_detach                                      build/kernel/src/ipc.o
rt_mb_init                                        build/kernel/src/ipc.o
rt_mb_recv                                        build/kernel/src/ipc.o
rt_mb_send                                        build/kernel/src/ipc.o
rt_mb_send_wait                                   build/kernel/src/ipc.o
rt_mb_urgent                                      build/kernel/src/ipc.o
rt_memcmp                                         build/kernel/src/kservice.o
                                                  build/driver/lib/string.o
rt_memcpy                                         build/kernel/src/kservice.o
                                                  build/kernel/components/drivers/serial/serial.o
                                                  build/kernel/src/ipc.o
                                                  build/kernel/src/mem.o
                                                  build/driver/lib/string.o
rt_memmove                                        build/kernel/src/kservice.o
                                                  build/kernel/components/finsh/shell.o
                                                  build/driver/lib/string.o
rt_memory_info                                    build/kernel/src/mem.o
rt_memset                                         build/kernel/src/kservice.o
                                                  build/kernel/components/drivers/src/pipe.o
                                                  build/kernel/components/drivers/serial/serial.o
                                                  build/kernel/src/object.o
                                                  build/kernel/src/thread.o
                                                  build/kernel/src/mem.o
                                                  build/kernel/src/device.o
                                                  build/driver/lib/string.o
                                                  build/driver/board.o
rt_mp_alloc                                       build/kernel/src/mempool.o
rt_mp_alloc_sethook                               build/kernel/src/mempool.o
rt_mp_create                                      build/kernel/src/mempool.o
rt_mp_delete                                      build/kernel/src/mempool.o
rt_mp_detach                                      build/kernel/src/mempool.o
rt_mp_free                                        build/kernel/src/mempool.o
rt_mp_free_sethook                                build/kernel/src/mempool.o
rt_mp_init                                        build/kernel/src/mempool.o
rt_mq_control                                     build/kernel/src/ipc.o
rt_mq_create                                      build/kernel/src/ipc.o
rt_mq_delete                                      build/kernel/src/ipc.o
rt_mq_detach                                      build/kernel/src/ipc.o
rt_mq_init                                        build/kernel/src/ipc.o
rt_mq_recv                                        build/kernel/src/ipc.o
rt_mq_send                                        build/kernel/src/ipc.o
rt_mq_send_wait                                   build/kernel/src/ipc.o
rt_mq_urgent                                      build/kernel/src/ipc.o
rt_mutex_control                                  build/kernel/src/ipc.o
rt_mutex_create                                   build/kernel/src/ipc.o
rt_mutex_delete                                   build/kernel/src/ipc.o
rt_mutex_detach                                   build/kernel/src/ipc.o
                                                  build/kernel/components/drivers/src/pipe.o
rt_mutex_init                                     build/kernel/src/ipc.o
                                                  build/kernel/components/drivers/src/pipe.o
                                                  build/kernel/components/dfs/src/dfs.o
rt_mutex_release                                  build/kernel/src/ipc.o
                                                  build/kernel/components/drivers/src/pipe.o
                                                  build/kernel/components/dfs/src/dfs.o
rt_mutex_take                                     build/kernel/src/ipc.o
                                                  build/kernel/components/drivers/src/pipe.o
                                                  build/kernel/components/dfs/src/dfs.o
rt_mutex_trytake                                  build/kernel/src/ipc.o
rt_object_allocate                                build/kernel/src/object.o
                                                  build/kernel/src/mempool.o
                                                  build/kernel/src/ipc.o
                                                  build/kernel/src/timer.o
                                                  build/kernel/src/thread.o
rt_object_attach_sethook                          build/kernel/src/object.o
rt_object_delete                                  build/kernel/src/object.o
                                                  build/kernel/src/idle.o
                                                  build/kernel/src/mempool.o
                                                  build/kernel/src/ipc.o
                                                  build/kernel/src/timer.o
                                                  build/kernel/src/thread.o
rt_object_detach                                  build/kernel/src/object.o
                                                  build/kernel/src/idle.o
                                                  build/kernel/src/mempool.o
                                                  build/kernel/src/ipc.o
                                                  build/kernel/src/timer.o
                                                  build/kernel/src/thread.o
                                                  build/kernel/src/device.o
rt_object_detach_sethook                          build/kernel/src/object.o
rt_object_find                                    build/kernel/src/object.o
                                                  build/kernel/src/thread.o
                                                  build/kernel/src/device.o
rt_object_get_information                         build/kernel/src/object.o
                                                  build/kernel/components/dfs/filesystems/devfs/devfs.o
                                                  build/kernel/components/finsh/cmd.o
rt_object_get_length                              build/kernel/src/object.o
rt_object_get_pointers                            build/kernel/src/object.o
rt_object_get_type                                build/kernel/src/object.o
                                                  build/kernel/src/mempool.o
                                                  build/kernel/src/ipc.o
                                                  build/kernel/src/timer.o
                                                  build/kernel/src/thread.o
                                                  build/kernel/src/device.o
rt_object_init                                    build/kernel/src/object.o
                                                  build/kernel/src/mempool.o
                                                  build/kernel/src/ipc.o
                                                  build/kernel/src/timer.o
                                                  build/kernel/src/thread.o
                                                  build/kernel/src/device.o
rt_object_is_systemobject                         build/kernel/src/object.o
                                                  build/kernel/src/idle.o
                                                  build/kernel/src/mempool.o
                                                  build/kernel/src/ipc.o
                                                  build/kernel/src/timer.o
                                                  build/kernel/src/thread.o
                                                  build/kernel/src/device.o
rt_object_put_hook                                build/kernel/src/object.o
                                                  build/kernel/src/ipc.o
                                                  build/kernel/src/timer.o
rt_object_put_sethook                             build/kernel/src/object.o
rt_object_take_hook                               build/kernel/src/object.o
                                                  build/kernel/src/ipc.o
                                                  build/kernel/src/timer.o
rt_object_take_sethook                            build/kernel/src/object.o
rt_object_trytake_hook                            build/kernel/src/object.o
                                                  build/kernel/src/ipc.o
rt_object_trytake_sethook                         build/kernel/src/object.o
rt_pin_attach_irq                                 build/kernel/components/drivers/misc/pin.o
rt_pin_detach_irq                                 build/kernel/components/drivers/misc/pin.o
rt_pin_get                                        build/kernel/components/drivers/misc/pin.o
rt_pin_irq_enable                                 build/kernel/components/drivers/misc/pin.o
rt_pin_mode                                       build/kernel/components/drivers/misc/pin.o
rt_pin_read                                       build/kernel/components/drivers/misc/pin.o
rt_pin_write                                      build/kernel/components/drivers/misc/pin.o
rt_pipe_close                                     build/kernel/components/drivers/src/pipe.o
rt_pipe_control                                   build/kernel/components/drivers/src/pipe.o
rt_pipe_create                                    build/kernel/components/drivers/src/pipe.o
rt_pipe_delete                                    build/kernel/components/drivers/src/pipe.o
rt_pipe_open                                      build/kernel/components/drivers/src/pipe.o
rt_pipe_read                                      build/kernel/components/drivers/src/pipe.o
rt_pipe_write                                     build/kernel/components/drivers/src/pipe.o
rt_rbb_blk_alloc                                  build/kernel/components/drivers/src/ringblk_buf.o
rt_rbb_blk_buf                                    build/kernel/components/drivers/src/ringblk_buf.o
rt_rbb_blk_free                                   build/kernel/components/drivers/src/ringblk_buf.o
rt_rbb_blk_get                                    build/kernel/components/drivers/src/ringblk_buf.o
rt_rbb_blk_put                                    build/kernel/components/drivers/src/ringblk_buf.o
rt_rbb_blk_queue_buf                              build/kernel/components/drivers/src/ringblk_buf.o
rt_rbb_blk_queue_free                             build/kernel/components/drivers/src/ringblk_buf.o
rt_rbb_blk_queue_get                              build/kernel/components/drivers/src/ringblk_buf.o
rt_rbb_blk_queue_len                              build/kernel/components/drivers/src/ringblk_buf.o
rt_rbb_blk_size                                   build/kernel/components/drivers/src/ringblk_buf.o
rt_rbb_create                                     build/kernel/components/drivers/src/ringblk_buf.o
rt_rbb_destroy                                    build/kernel/components/drivers/src/ringblk_buf.o
rt_rbb_get_buf_size                               build/kernel/components/drivers/src/ringblk_buf.o
rt_rbb_init                                       build/kernel/components/drivers/src/ringblk_buf.o
rt_rbb_next_blk_queue_len                         build/kernel/components/drivers/src/ringblk_buf.o
rt_realloc                                        build/kernel/src/mem.o
                                                  build/kernel/components/dfs/src/dfs.o
rt_ringbuffer_create                              build/kernel/components/drivers/src/ringbuffer.o
                                                  build/kernel/components/drivers/src/pipe.o
rt_ringbuffer_data_len                            build/kernel/components/drivers/src/ringbuffer.o
rt_ringbuffer_destroy                             build/kernel/components/drivers/src/ringbuffer.o
                                                  build/kernel/components/drivers/src/pipe.o
rt_ringbuffer_get                                 build/kernel/components/drivers/src/ringbuffer.o
                                                  build/kernel/components/drivers/src/pipe.o
rt_ringbuffer_getchar                             build/kernel/components/drivers/src/ringbuffer.o
rt_ringbuffer_init                                build/kernel/components/drivers/src/ringbuffer.o
rt_ringbuffer_peak                                build/kernel/components/drivers/src/ringbuffer.o
rt_ringbuffer_put                                 build/kernel/components/drivers/src/ringbuffer.o
                                                  build/kernel/components/drivers/src/pipe.o
rt_ringbuffer_put_force                           build/kernel/components/drivers/src/ringbuffer.o
rt_ringbuffer_putchar                             build/kernel/components/drivers/src/ringbuffer.o
rt_ringbuffer_putchar_force                       build/kernel/components/drivers/src/ringbuffer.o
rt_ringbuffer_reset                               build/kernel/components/drivers/src/ringbuffer.o
rt_schedule                                       build/kernel/src/scheduler.o
                                                  build/kernel/components/drivers/src/dataqueue.o
                                                  build/kernel/components/drivers/src/completion.o
                                                  build/kernel/components/drivers/src/workqueue.o
                                                  build/kernel/components/drivers/src/waitqueue.o
                                                  build/kernel/src/mempool.o
                                                  build/kernel/src/ipc.o
                                                  build/kernel/src/timer.o
                                                  build/kernel/src/clock.o
                                                  build/kernel/src/thread.o
rt_schedule_insert_thread                         build/kernel/src/scheduler.o
                                                  build/kernel/src/thread.o
rt_schedule_remove_thread                         build/kernel/src/scheduler.o
                                                  build/kernel/src/thread.o
rt_scheduler_sethook                              build/kernel/src/scheduler.o
rt_scheduler_switch_sethook                       build/kernel/src/scheduler.o
rt_sem_control                                    build/kernel/src/ipc.o
rt_sem_create                                     build/kernel/src/ipc.o
rt_sem_delete                                     build/kernel/src/ipc.o
rt_sem_detach                                     build/kernel/src/ipc.o
                                                  build/kernel/components/drivers/src/workqueue.o
rt_sem_init                                       build/kernel/src/ipc.o
                                                  build/kernel/components/drivers/src/workqueue.o
                                                  build/kernel/components/finsh/shell.o
                                                  build/kernel/src/mem.o
rt_sem_release                                    build/kernel/src/ipc.o
                                                  build/kernel/components/drivers/src/workqueue.o
                                                  build/kernel/components/finsh/shell.o
                                                  build/kernel/src/mem.o
rt_sem_take                                       build/kernel/src/ipc.o
                                                  build/kernel/components/drivers/src/workqueue.o
                                                  build/kernel/src/mem.o
rt_sem_trytake                                    build/kernel/src/ipc.o
                                                  build/kernel/components/drivers/src/workqueue.o
rt_set_errno                                      build/kernel/src/kservice.o
                                                  build/kernel/components/drivers/src/pipe.o
                                                  build/kernel/components/drivers/serial/serial.o
                                                  build/kernel/components/dfs/src/dfs_posix.o
                                                  build/kernel/components/dfs/src/dfs_fs.o
                                                  build/kernel/src/mempool.o
                                                  build/kernel/src/device.o
rt_show_version                                   build/kernel/src/kservice.o
                                                  build/kernel/components/finsh/cmd.o
                                                  build/kernel/src/components.o
rt_snprintf                                       build/kernel/src/kservice.o
                                                  build/kernel/components/dfs/src/dfs.o
                                                  build/kernel/components/finsh/msh_file.o
rt_soft_timer_check                               build/kernel/src/timer.o
rt_sprintf                                        build/kernel/src/kservice.o
                                                  build/kernel/components/finsh/msh_file.o
                                                  build/kernel/src/idle.o
rt_strcasecmp                                     build/kernel/src/kservice.o
rt_strcmp                                         build/kernel/src/kservice.o
                                                  build/kernel/components/finsh/msh_file.o
                                                  build/driver/lib/string.o
rt_strdup                                         build/kernel/src/kservice.o
                                                  build/kernel/components/dfs/src/dfs_file.o
                                                  build/kernel/components/dfs/src/dfs.o
rt_strlen                                         build/kernel/src/kservice.o
                                                  build/kernel/components/dfs/filesystems/romfs/dfs_romfs.o
                                                  build/kernel/components/finsh/msh.o
                                                  build/kernel/components/finsh/msh_file.o
                                                  build/kernel/components/finsh/shell.o
                                                  build/driver/lib/string.o
rt_strncmp                                        build/kernel/src/kservice.o
                                                  build/kernel/components/dfs/filesystems/romfs/dfs_romfs.o
                                                  build/kernel/src/object.o
                                                  build/driver/lib/string.o
rt_strncpy                                        build/kernel/src/kservice.o
                                                  build/kernel/components/dfs/filesystems/romfs/dfs_romfs.o
                                                  build/kernel/components/dfs/filesystems/devfs/devfs.o
                                                  build/kernel/components/finsh/msh.o
                                                  build/kernel/src/object.o
                                                  build/driver/lib/string.o
rt_strnlen                                        build/kernel/src/kservice.o
rt_strstr                                         build/kernel/src/kservice.o
                                                  build/driver/lib/string.o
rt_system_heap_init                               build/kernel/src/mem.o
                                                  build/driver/board.o
rt_system_scheduler_init                          build/kernel/src/scheduler.o
                                                  build/kernel/src/components.o
rt_system_scheduler_start                         build/kernel/src/scheduler.o
                                                  build/kernel/src/components.o
rt_system_timer_init                              build/kernel/src/timer.o
                                                  build/kernel/src/components.o
rt_system_timer_thread_init                       build/kernel/src/timer.o
                                                  build/kernel/src/components.o
rt_thread_control                                 build/kernel/src/thread.o
                                                  build/kernel/src/ipc.o
rt_thread_create                                  build/kernel/src/thread.o
                                                  build/kernel/components/drivers/src/workqueue.o
                                                  build/kernel/components/finsh/shell.o
                                                  build/kernel/src/components.o
                                                  build/applications/main.o
rt_thread_defunct_dequeue                         build/kernel/src/idle.o
rt_thread_defunct_enqueue                         build/kernel/src/idle.o
                                                  build/kernel/src/thread.o
rt_thread_delay                                   build/kernel/src/thread.o
                                                  build/kernel/src/timer.o
rt_thread_delay_until                             build/kernel/src/thread.o
rt_thread_delete                                  build/kernel/src/thread.o
                                                  build/kernel/components/drivers/src/workqueue.o
rt_thread_detach                                  build/kernel/src/thread.o
rt_thread_find                                    build/kernel/src/thread.o
rt_thread_idle_delhook                            build/kernel/src/idle.o
rt_thread_idle_gethandler                         build/kernel/src/idle.o
rt_thread_idle_init                               build/kernel/src/idle.o
                                                  build/kernel/src/components.o
rt_thread_idle_sethook                            build/kernel/src/idle.o
rt_thread_init                                    build/kernel/src/thread.o
                                                  build/kernel/src/idle.o
                                                  build/kernel/src/timer.o
rt_thread_inited_sethook                          build/kernel/src/thread.o
rt_thread_mdelay                                  build/kernel/src/thread.o
                                                  build/kernel/components/finsh/shell.o
                                                  build/applications/motor_periph.o
                                                  build/applications/main.o
rt_thread_priority_table                          build/kernel/src/scheduler.o
rt_thread_ready_priority_group                    build/kernel/src/scheduler.o
rt_thread_resume                                  build/kernel/src/thread.o
                                                  build/kernel/components/drivers/src/dataqueue.o
                                                  build/kernel/components/drivers/src/completion.o
                                                  build/kernel/components/drivers/src/workqueue.o
                                                  build/kernel/components/drivers/src/waitqueue.o
                                                  build/kernel/src/mempool.o
                                                  build/kernel/src/ipc.o
                                                  build/kernel/src/timer.o
rt_thread_resume_sethook                          build/kernel/src/thread.o
rt_thread_self                                    build/kernel/src/thread.o
                                                  build/kernel/components/drivers/src/dataqueue.o
                                                  build/kernel/components/drivers/src/completion.o
                                                  build/kernel/components/drivers/src/workqueue.o
                                                  build/kernel/components/drivers/src/waitqueue.o
                                                  /home/ddddddd/my_learn/cpu_relative/prog/src/rtthread/libcpu/risc-v/virt64/interrupt.o
                                                  build/kernel/src/mempool.o
                                                  build/kernel/src/ipc.o
                                                  build/kernel/src/timer.o
                                                  build/kernel/src/clock.o
                                                  build/kernel/src/kservice.o
                                                  build/kernel/src/mem.o
rt_thread_sleep                                   build/kernel/src/thread.o
rt_thread_sp_to_thread                            /home/ddddddd/my_learn/cpu_relative/prog/src/rtthread/libcpu/risc-v/virt64/cpuport.o
rt_thread_startup                                 build/kernel/src/thread.o
                                                  build/kernel/components/drivers/src/workqueue.o
                                                  build/kernel/components/finsh/shell.o
                                                  build/kernel/src/idle.o
                                                  build/kernel/src/timer.o
                                                  build/kernel/src/components.o
                                                  build/applications/main.o
rt_thread_suspend                                 build/kernel/src/thread.o
                                                  build/kernel/components/drivers/src/dataqueue.o
                                                  build/kernel/components/drivers/src/completion.o
                                                  build/kernel/components/drivers/src/workqueue.o
                                                  build/kernel/components/drivers/src/waitqueue.o
                                                  build/kernel/src/mempool.o
                                                  build/kernel/src/ipc.o
                                                  build/kernel/src/timer.o
rt_thread_suspend_sethook                         build/kernel/src/thread.o
rt_thread_switch_interrupt_flag                   /home/ddddddd/my_learn/cpu_relative/prog/src/rtthread/libcpu/risc-v/virt64/cpuport.o
                                                  /home/ddddddd/my_learn/cpu_relative/prog/src/rtthread/libcpu/risc-v/virt64/interrupt_gcc.o
rt_thread_timeout                                 build/kernel/src/thread.o
rt_thread_yield                                   build/kernel/src/thread.o
rt_tick_from_millisecond                          build/kernel/src/clock.o
                                                  build/kernel/components/drivers/src/waitqueue.o
                                                  build/kernel/src/thread.o
rt_tick_get                                       build/kernel/src/clock.o
                                                  build/kernel/components/finsh/cmd.o
                                                  build/kernel/src/mempool.o
                                                  build/kernel/src/ipc.o
                                                  build/kernel/src/timer.o
                                                  build/kernel/src/thread.o
rt_tick_get_millisecond                           build/kernel/src/clock.o
rt_tick_increase                                  build/kernel/src/clock.o
                                                  /home/ddddddd/my_learn/cpu_relative/prog/src/rtthread/libcpu/risc-v/virt64/tick.o
rt_tick_set                                       build/kernel/src/clock.o
rt_timer_check                                    build/kernel/src/timer.o
                                                  build/kernel/src/clock.o
rt_timer_control                                  build/kernel/src/timer.o
                                                  build/kernel/components/drivers/src/dataqueue.o
                                                  build/kernel/components/drivers/src/completion.o
                                                  build/kernel/components/drivers/src/workqueue.o
                                                  build/kernel/components/drivers/src/waitqueue.o
                                                  build/kernel/src/mempool.o
                                                  build/kernel/src/ipc.o
                                                  build/kernel/src/thread.o
rt_timer_create                                   build/kernel/src/timer.o
rt_timer_delete                                   build/kernel/src/timer.o
rt_timer_detach                                   build/kernel/src/timer.o
                                                  build/kernel/components/drivers/src/workqueue.o
                                                  build/kernel/src/thread.o
rt_timer_enter_sethook                            build/kernel/src/timer.o
rt_timer_exit_sethook                             build/kernel/src/timer.o
rt_timer_init                                     build/kernel/src/timer.o
                                                  build/kernel/components/drivers/src/workqueue.o
                                                  build/kernel/src/thread.o
rt_timer_next_timeout_tick                        build/kernel/src/timer.o
rt_timer_start                                    build/kernel/src/timer.o
                                                  build/kernel/components/drivers/src/dataqueue.o
                                                  build/kernel/components/drivers/src/completion.o
                                                  build/kernel/components/drivers/src/workqueue.o
                                                  build/kernel/components/drivers/src/waitqueue.o
                                                  build/kernel/src/mempool.o
                                                  build/kernel/src/ipc.o
                                                  build/kernel/src/thread.o
rt_timer_stop                                     build/kernel/src/timer.o
                                                  build/kernel/components/drivers/src/workqueue.o
                                                  build/kernel/src/thread.o
rt_vsnprintf                                      build/kernel/src/kservice.o
rt_vsprintf                                       build/kernel/src/kservice.o
                                                  build/driver/lib/stdio.o
rt_workqueue_cancel_all_work                      build/kernel/components/drivers/src/workqueue.o
rt_workqueue_cancel_work                          build/kernel/components/drivers/src/workqueue.o
rt_workqueue_cancel_work_sync                     build/kernel/components/drivers/src/workqueue.o
rt_workqueue_create                               build/kernel/components/drivers/src/workqueue.o
rt_workqueue_critical_work                        build/kernel/components/drivers/src/workqueue.o
rt_workqueue_destroy                              build/kernel/components/drivers/src/workqueue.o
rt_workqueue_dowork                               build/kernel/components/drivers/src/workqueue.o
rt_workqueue_submit_work                          build/kernel/components/drivers/src/workqueue.o
rt_wqueue_add                                     build/kernel/components/drivers/src/waitqueue.o
rt_wqueue_remove                                  build/kernel/components/drivers/src/waitqueue.o
rt_wqueue_wait                                    build/kernel/components/drivers/src/waitqueue.o
rt_wqueue_wakeup                                  build/kernel/components/drivers/src/waitqueue.o
rtthread_startup                                  build/kernel/src/components.o
sbi_hsm_hart_start                                build/driver/sbi.o
sbi_hsm_hart_status                               build/driver/sbi.o
sbi_hsm_hart_stop                                 build/driver/sbi.o
sbi_impl_id                                       build/driver/sbi.o
sbi_impl_version                                  build/driver/sbi.o
sbi_init                                          build/driver/sbi.o
sbi_print_version                                 build/driver/sbi.o
sbi_remote_fence_i                                build/driver/sbi.o
sbi_remote_sfence_vma                             build/driver/sbi.o
sbi_remote_sfence_vma_asid                        build/driver/sbi.o
sbi_send_ipi                                      build/driver/sbi.o
sbi_set_timer                                     build/driver/sbi.o
sbi_spec_version                                  build/driver/sbi.o
seekdir                                           build/kernel/components/dfs/src/dfs_posix.o
serial1                                           build/driver/drv_uart.o
serial2                                           build/applications/uart_util.o
shell                                             build/kernel/components/finsh/shell.o
sprintf                                           build/driver/lib/stdio.o
stat                                              build/kernel/components/dfs/src/dfs_posix.o
                                                  build/kernel/components/finsh/msh_file.o
statfs                                            build/kernel/components/dfs/src/dfs_posix.o
strcat                                            build/driver/lib/string.o
                                                  build/kernel/components/finsh/msh.o
                                                  build/kernel/components/finsh/shell.o
strcmp                                            build/driver/lib/string.o
                                                  build/kernel/components/dfs/src/dfs_file.o
                                                  build/kernel/components/dfs/src/dfs.o
                                                  build/kernel/components/dfs/src/dfs_fs.o
                                                  build/kernel/components/finsh/msh_file.o
strcpy                                            build/driver/lib/string.o
                                                  build/kernel/components/finsh/msh.o
                                                  build/kernel/components/finsh/shell.o
strlen                                            build/driver/lib/string.o
                                                  build/kernel/components/dfs/src/dfs.o
                                                  build/kernel/components/dfs/src/dfs_posix.o
                                                  build/kernel/components/dfs/src/dfs_fs.o
                                                  build/kernel/components/finsh/msh.o
                                                  build/kernel/components/finsh/msh_file.o
                                                  build/kernel/components/finsh/shell.o
strncmp                                           build/driver/lib/string.o
                                                  build/kernel/components/dfs/src/dfs_fs.o
                                                  build/kernel/components/finsh/msh.o
                                                  build/kernel/components/finsh/cmd.o
strncpy                                           build/driver/lib/string.o
                                                  build/kernel/components/dfs/src/dfs_posix.o
                                                  build/kernel/components/finsh/shell.o
strrchr                                           build/driver/lib/string.o
                                                  build/kernel/components/dfs/src/dfs_file.o
strstr                                            build/driver/lib/string.o
                                                  build/kernel/components/finsh/msh_file.o
telldir                                           build/kernel/components/dfs/src/dfs_posix.o
thread_sample                                     build/applications/main.o
tick_isr                                          /home/ddddddd/my_learn/cpu_relative/prog/src/rtthread/libcpu/risc-v/virt64/tick.o
                                                  /home/ddddddd/my_learn/cpu_relative/prog/src/rtthread/libcpu/risc-v/virt64/interrupt.o
trap_entry                                        /home/ddddddd/my_learn/cpu_relative/prog/src/rtthread/libcpu/risc-v/virt64/interrupt_gcc.o
                                                  /home/ddddddd/my_learn/cpu_relative/prog/src/rtthread/libcpu/risc-v/virt64/startup_gcc.o
uart1                                             build/driver/drv_uart.o
uart2                                             build/applications/uart_util.o
uart_init                                         build/applications/uart_util.o
uart_ops                                          build/applications/uart_util.o
unlink                                            build/kernel/components/dfs/src/dfs_posix.o
                                                  build/kernel/components/finsh/msh_file.o
version                                           build/kernel/components/finsh/cmd.o
virt_uart_init                                    build/driver/drv_uart.o
vsprintf                                          build/driver/lib/stdio.o
working_directory                                 build/kernel/components/dfs/src/dfs.o
                                                  build/kernel/components/dfs/src/dfs_file.o
                                                  build/kernel/components/dfs/src/dfs_posix.o
                                                  build/kernel/components/finsh/msh_file.o
write                                             build/kernel/components/dfs/src/dfs_posix.o
                                                  build/kernel/components/finsh/msh_file.o
